

Microchip MPLAB XC8 Assembler V2.32 build 20210201212658 
                                                                                               Thu Oct 14 12:54:06 2021

Microchip MPLAB XC8 C Compiler v2.32 (Free license) build 20210201212658 Og1 
     1                           	processor	18F4550
     2                           	fnconf	rparam,??,?,0
     3                           	pagewidth 120
     4                           	opt	flic
     5                           	psect	idataCOMRAM,global,class=CODE,delta=1,noexec
     6                           	psect	cinit,global,reloc=2,class=CODE,delta=1
     7                           	psect	bssCOMRAM,global,class=COMRAM,space=1,delta=1,lowdata,noexec
     8                           	psect	dataCOMRAM,global,class=COMRAM,space=1,delta=1,lowdata,noexec
     9                           	psect	cstackCOMRAM,global,class=COMRAM,space=1,delta=1,lowdata,noexec
    10                           	psect	text0,global,reloc=2,class=CODE,delta=1
    11                           	psect	text1,global,reloc=2,class=CODE,delta=1
    12                           	psect	text2,global,reloc=2,class=CODE,delta=1
    13                           	psect	text3,global,reloc=2,class=CODE,delta=1
    14                           	psect	text4,global,reloc=2,class=CODE,delta=1
    15                           	psect	text5,global,reloc=2,class=CODE,delta=1
    16                           	psect	text6,global,reloc=2,class=CODE,delta=1
    17                           	psect	text7,global,reloc=2,class=CODE,delta=1,group=1
    18                           	psect	text8,global,reloc=2,class=CODE,delta=1,group=1
    19                           	psect	text9,global,reloc=2,class=CODE,delta=1,group=1
    20                           	psect	text10,global,reloc=2,class=CODE,delta=1,group=1
    21                           	psect	text11,global,reloc=2,class=CODE,delta=1,group=1
    22                           	psect	intsave_regs,global,class=BIGRAM,space=1,delta=1,noexec
    23                           	psect	rparam,global,class=COMRAM,space=1,delta=1,noexec
    24                           	psect	idloc,global,abs,ovrld,class=IDLOC,space=5,delta=1,noexec
    25                           	psect	config,global,abs,ovrld,class=CONFIG,space=4,delta=1,noexec
    26  0000                     
    27                           ; Version 2.20
    28                           ; Generated 12/02/2020 GMT
    29                           ; 
    30                           ; Copyright © 2020, Microchip Technology Inc. and its subsidiaries ("Microchip")
    31                           ; All rights reserved.
    32                           ; 
    33                           ; This software is developed by Microchip Technology Inc. and its subsidiaries ("Microch
      +                          ip").
    34                           ; 
    35                           ; Redistribution and use in source and binary forms, with or without modification, are
    36                           ; permitted provided that the following conditions are met:
    37                           ; 
    38                           ;     1. Redistributions of source code must retain the above copyright notice, this lis
      +                          t of
    39                           ;        conditions and the following disclaimer.
    40                           ; 
    41                           ;     2. Redistributions in binary form must reproduce the above copyright notice, this 
      +                          list
    42                           ;        of conditions and the following disclaimer in the documentation and/or other
    43                           ;        materials provided with the distribution.
    44                           ; 
    45                           ;     3. Microchip's name may not be used to endorse or promote products derived from th
      +                          is
    46                           ;        software without specific prior written permission.
    47                           ; 
    48                           ; THIS SOFTWARE IS PROVIDED BY MICROCHIP "AS IS" AND ANY EXPRESS OR IMPLIED WARRANTIES,
    49                           ; INCLUDING, BUT NOT LIMITED TO, THE IMPLIED WARRANTIES OF MERCHANTABILITY AND FITNESS F
      +                          OR
    50                           ; PURPOSE ARE DISCLAIMED.  IN NO EVENT SHALL MICROCHIP BE LIABLE FOR ANY DIRECT, INDIREC
      +                          T,
    51                           ; INCIDENTAL, SPECIAL, EXEMPLARY, OR CONSEQUENTIAL DAMAGES (INCLUDING BUT NOT LIMITED TO
    52                           ; PROCUREMENT OF SUBSTITUTE GOODS OR SERVICES; LOSS OF USE, DATA OR PROFITS; OR BUSINESS
    53                           ; INTERRUPTION) HOWSOEVER CAUSED AND ON ANY THEORY OF LIABILITY, WHETHER IN CONTRACT, ST
      +                          RICT
    54                           ; LIABILITY, OR TORT (INCLUDING NEGLIGENCE OR OTHERWISE) ARISING IN ANY WAY OUT OF THE U
      +                          SE OF
    55                           ; THIS SOFTWARE, EVEN IF ADVISED OF THE POSSIBILITY OF SUCH DAMAGE.
    56                           ; 
    57                           ; 
    58                           ; Code-generator required, PIC18F4550 Definitions
    59                           ; 
    60                           ; SFR Addresses
    61  0000                     
    62                           	psect	idataCOMRAM
    63  005BA4                     __pidataCOMRAM:
    64                           	callstack 0
    65                           
    66                           ;initializer for _distancia
    67  005BA4  0000               	dw	0
    68  005BA6  4000               	dw	16384
    69  0000                     _TMR0	set	4054
    70  0000                     _PORTBbits	set	3969
    71  0000                     _TRISB	set	3987
    72  0000                     _TRISA	set	3986
    73  0000                     _ADCON1	set	4033
    74  0000                     _T0CONbits	set	4053
    75  0000                     _INTCONbits	set	4082
    76  0000                     _PORTAbits	set	3968
    77  0000                     _LATDbits	set	3980
    78  0000                     _TRISDbits	set	3989
    79  0000                     _TRISD	set	3989
    80  0000                     _PORTD	set	3971
    81                           
    82                           ; #config settings
    83                           
    84                           	psect	cinit
    85  005BBE                     __pcinit:
    86                           	callstack 0
    87  005BBE                     start_initialization:
    88                           	callstack 0
    89  005BBE                     __initialization:
    90                           	callstack 0
    91                           
    92                           ; Initialize objects allocated to COMRAM (4 bytes)
    93                           ; load TBLPTR registers with __pidataCOMRAM
    94  005BBE  0EA4               	movlw	low __pidataCOMRAM
    95  005BC0  6EF6               	movwf	tblptrl,c
    96  005BC2  0E5B               	movlw	high __pidataCOMRAM
    97  005BC4  6EF7               	movwf	tblptrh,c
    98  005BC6  0E00               	movlw	low (__pidataCOMRAM shr (0+16))
    99  005BC8  6EF8               	movwf	tblptru,c
   100  005BCA  EE00  F04B         	lfsr	0,__pdataCOMRAM
   101  005BCE  EE10 F004          	lfsr	1,4
   102  005BD2                     copy_data0:
   103  005BD2  0009               	tblrd		*+
   104  005BD4  CFF5 FFEE          	movff	tablat,postinc0
   105  005BD8  50E5               	movf	postdec1,w,c
   106  005BDA  50E1               	movf	fsr1l,w,c
   107  005BDC  E1FA               	bnz	copy_data0
   108                           
   109                           ; Clear objects allocated to COMRAM (14 bytes)
   110  005BDE  EE00  F03D         	lfsr	0,__pbssCOMRAM
   111  005BE2  0E0E               	movlw	14
   112  005BE4                     clear_0:
   113  005BE4  6AEE               	clrf	postinc0,c
   114  005BE6  06E8               	decf	wreg,f,c
   115  005BE8  E1FD               	bnz	clear_0
   116  005BEA                     end_of_initialization:
   117                           	callstack 0
   118  005BEA                     __end_of__initialization:
   119                           	callstack 0
   120  005BEA  0100               	movlb	0
   121  005BEC  EF1B  F02E         	goto	_main	;jump to C main() function
   122                           
   123                           	psect	bssCOMRAM
   124  00003D                     __pbssCOMRAM:
   125                           	callstack 0
   126  00003D                     _buffer1:
   127                           	callstack 0
   128  00003D                     	ds	8
   129  000045                     _s:
   130                           	callstack 0
   131  000045                     	ds	2
   132  000047                     _b:
   133                           	callstack 0
   134  000047                     	ds	2
   135  000049                     _a:
   136                           	callstack 0
   137  000049                     	ds	2
   138                           
   139                           	psect	dataCOMRAM
   140  00004B                     __pdataCOMRAM:
   141                           	callstack 0
   142  00004B                     _distancia:
   143                           	callstack 0
   144  00004B                     	ds	4
   145                           
   146                           	psect	cstackCOMRAM
   147  000001                     __pcstackCOMRAM:
   148                           	callstack 0
   149  000001                     ?___fladd:
   150                           	callstack 0
   151  000001                     ?___xxtofl:
   152                           	callstack 0
   153  000001                     ___fladd@b:
   154                           	callstack 0
   155  000001                     ___xxtofl@val:
   156                           	callstack 0
   157                           
   158                           ; 4 bytes @ 0x0
   159  000001                     	ds	4
   160  000005                     ??___xxtofl:
   161  000005                     ___fladd@a:
   162                           	callstack 0
   163                           
   164                           ; 4 bytes @ 0x4
   165  000005                     	ds	4
   166  000009                     ??___fladd:
   167  000009                     ___xxtofl@sign:
   168                           	callstack 0
   169                           
   170                           ; 1 bytes @ 0x8
   171  000009                     	ds	1
   172  00000A                     ___xxtofl@exp:
   173                           	callstack 0
   174                           
   175                           ; 1 bytes @ 0x9
   176  00000A                     	ds	1
   177  00000B                     ___xxtofl@arg:
   178                           	callstack 0
   179                           
   180                           ; 4 bytes @ 0xA
   181  00000B                     	ds	2
   182  00000D                     ___fladd@signs:
   183                           	callstack 0
   184                           
   185                           ; 1 bytes @ 0xC
   186  00000D                     	ds	1
   187  00000E                     ___fladd@aexp:
   188                           	callstack 0
   189                           
   190                           ; 1 bytes @ 0xD
   191  00000E                     	ds	1
   192  00000F                     ?___fldiv:
   193                           	callstack 0
   194  00000F                     ___fladd@bexp:
   195                           	callstack 0
   196  00000F                     ___fldiv@b:
   197                           	callstack 0
   198                           
   199                           ; 4 bytes @ 0xE
   200  00000F                     	ds	1
   201  000010                     ___fladd@grs:
   202                           	callstack 0
   203                           
   204                           ; 1 bytes @ 0xF
   205  000010                     	ds	3
   206  000013                     ___fldiv@a:
   207                           	callstack 0
   208                           
   209                           ; 4 bytes @ 0x12
   210  000013                     	ds	4
   211  000017                     ??___fldiv:
   212                           
   213                           ; 1 bytes @ 0x16
   214  000017                     	ds	4
   215  00001B                     ___fldiv@rem:
   216                           	callstack 0
   217                           
   218                           ; 4 bytes @ 0x1A
   219  00001B                     	ds	4
   220  00001F                     ___fldiv@sign:
   221                           	callstack 0
   222                           
   223                           ; 1 bytes @ 0x1E
   224  00001F                     	ds	1
   225  000020                     ___fldiv@new_exp:
   226                           	callstack 0
   227                           
   228                           ; 2 bytes @ 0x1F
   229  000020                     	ds	2
   230  000022                     ___fldiv@grs:
   231                           	callstack 0
   232                           
   233                           ; 4 bytes @ 0x21
   234  000022                     	ds	4
   235  000026                     ___fldiv@bexp:
   236                           	callstack 0
   237                           
   238                           ; 1 bytes @ 0x25
   239  000026                     	ds	1
   240  000027                     ___fldiv@aexp:
   241                           	callstack 0
   242                           
   243                           ; 1 bytes @ 0x26
   244  000027                     	ds	1
   245  000028                     ?___flsub:
   246                           	callstack 0
   247  000028                     ?___fltol:
   248                           	callstack 0
   249  000028                     ___fltol@f1:
   250                           	callstack 0
   251  000028                     ___flsub@b:
   252                           	callstack 0
   253                           
   254                           ; 4 bytes @ 0x27
   255  000028                     	ds	4
   256  00002C                     ??___fltol:
   257  00002C                     ___flsub@a:
   258                           	callstack 0
   259                           
   260                           ; 4 bytes @ 0x2B
   261  00002C                     	ds	4
   262  000030                     ___fltol@sign1:
   263                           	callstack 0
   264                           
   265                           ; 1 bytes @ 0x2F
   266  000030                     	ds	1
   267  000031                     ___fltol@exp1:
   268                           	callstack 0
   269                           
   270                           ; 1 bytes @ 0x30
   271  000031                     	ds	1
   272  000032                     tocar_nota@duracion:
   273                           	callstack 0
   274  000032                     silencio@duracion:
   275                           	callstack 0
   276                           
   277                           ; 2 bytes @ 0x31
   278  000032                     	ds	2
   279  000034                     tocar_nota@tfrec:
   280                           	callstack 0
   281  000034                     silencio@tfrec:
   282                           	callstack 0
   283                           
   284                           ; 4 bytes @ 0x33
   285  000034                     	ds	4
   286  000038                     ??_tocar_nota:
   287  000038                     ??_silencio:
   288                           
   289                           ; 1 bytes @ 0x37
   290  000038                     	ds	1
   291  000039                     _tocar_nota$1015:
   292                           	callstack 0
   293  000039                     _silencio$1016:
   294                           	callstack 0
   295                           
   296                           ; 4 bytes @ 0x38
   297  000039                     	ds	4
   298  00003D                     
   299                           ; 1 bytes @ 0x3C
   300 ;;
   301 ;;Main: autosize = 0, tempsize = 0, incstack = 0, save=0
   302 ;;
   303 ;; *************** function _main *****************
   304 ;; Defined at:
   305 ;;		line 357 in file "../Practica5.X/main.c"
   306 ;; Parameters:    Size  Location     Type
   307 ;;		None
   308 ;; Auto vars:     Size  Location     Type
   309 ;;		None
   310 ;; Return value:  Size  Location     Type
   311 ;;                  1    wreg      void 
   312 ;; Registers used:
   313 ;;		wreg, status,2, status,0, cstack
   314 ;; Tracked objects:
   315 ;;		On entry : 0/0
   316 ;;		On exit  : 0/0
   317 ;;		Unchanged: 0/0
   318 ;; Data sizes:     COMRAM   BANK0   BANK1   BANK2   BANK3   BANK4   BANK5   BANK6   BANK7
   319 ;;      Params:         0       0       0       0       0       0       0       0       0
   320 ;;      Locals:         0       0       0       0       0       0       0       0       0
   321 ;;      Temps:          0       0       0       0       0       0       0       0       0
   322 ;;      Totals:         0       0       0       0       0       0       0       0       0
   323 ;;Total ram usage:        0 bytes
   324 ;; Hardware stack levels required when called: 4
   325 ;; This function calls:
   326 ;;		_cancion1
   327 ;;		_cancion2
   328 ;;		_cancion3
   329 ;;		_confT0
   330 ;; This function is called by:
   331 ;;		Startup code after reset
   332 ;; This function uses a non-reentrant model
   333 ;;
   334                           
   335                           	psect	text0
   336  005C36                     __ptext0:
   337                           	callstack 0
   338  005C36                     _main:
   339                           	callstack 27
   340  005C36                     
   341                           ;../Practica5.X/main.c: 359:     ADCON1 = 15;
   342  005C36  0E0F               	movlw	15
   343  005C38  6EC1               	movwf	193,c	;volatile
   344                           
   345                           ;../Practica5.X/main.c: 361:     TRISA = 0b00010000;
   346  005C3A  0E10               	movlw	16
   347  005C3C  6E92               	movwf	146,c	;volatile
   348  005C3E                     
   349                           ;../Practica5.X/main.c: 362:      TRISB = 0b11111111;
   350  005C3E  6893               	setf	147,c	;volatile
   351  005C40                     
   352                           ;../Practica5.X/main.c: 363:     confT0();
   353  005C40  ECD4  F02D         	call	_confT0	;wreg free
   354  005C44                     l1895:
   355                           
   356                           ;../Practica5.X/main.c: 367:      if (PORTBbits.RB0 == 1) {
   357  005C44  A081               	btfss	129,0,c	;volatile
   358  005C46  EF27  F02E         	goto	u1791
   359  005C4A  EF29  F02E         	goto	u1790
   360  005C4E                     u1791:
   361  005C4E  EF32  F02E         	goto	l1901
   362  005C52                     u1790:
   363  005C52                     l103:
   364  005C52  B081               	btfsc	129,0,c	;volatile
   365  005C54  EF2E  F02E         	goto	u1801
   366  005C58  EF30  F02E         	goto	u1800
   367  005C5C                     u1801:
   368  005C5C  EF29  F02E         	goto	l103
   369  005C60                     u1800:
   370  005C60                     
   371                           ;../Practica5.X/main.c: 369:                        cancion1();
   372  005C60  EC53  F035         	call	_cancion1	;wreg free
   373  005C64                     l1901:
   374                           
   375                           ;../Practica5.X/main.c: 372:      if (PORTBbits.RB1 == 1) {
   376  005C64  A281               	btfss	129,1,c	;volatile
   377  005C66  EF37  F02E         	goto	u1811
   378  005C6A  EF39  F02E         	goto	u1810
   379  005C6E                     u1811:
   380  005C6E  EF42  F02E         	goto	l1907
   381  005C72                     u1810:
   382  005C72                     l107:
   383  005C72  B281               	btfsc	129,1,c	;volatile
   384  005C74  EF3E  F02E         	goto	u1821
   385  005C78  EF40  F02E         	goto	u1820
   386  005C7C                     u1821:
   387  005C7C  EF39  F02E         	goto	l107
   388  005C80                     u1820:
   389  005C80                     
   390                           ;../Practica5.X/main.c: 374:                        cancion2();
   391  005C80  ECCA  F037         	call	_cancion2	;wreg free
   392  005C84                     l1907:
   393                           
   394                           ;../Practica5.X/main.c: 377:      if (PORTBbits.RB2 == 1) {
   395  005C84  A481               	btfss	129,2,c	;volatile
   396  005C86  EF47  F02E         	goto	u1831
   397  005C8A  EF49  F02E         	goto	u1830
   398  005C8E                     u1831:
   399  005C8E  EF54  F02E         	goto	l110
   400  005C92                     u1830:
   401  005C92                     l111:
   402  005C92  B481               	btfsc	129,2,c	;volatile
   403  005C94  EF4E  F02E         	goto	u1841
   404  005C98  EF50  F02E         	goto	u1840
   405  005C9C                     u1841:
   406  005C9C  EF49  F02E         	goto	l111
   407  005CA0                     u1840:
   408  005CA0                     
   409                           ;../Practica5.X/main.c: 379:                        cancion3();
   410  005CA0  EC2F  F03B         	call	_cancion3	;wreg free
   411                           
   412                           ;../Practica5.X/main.c: 381:      }
   413  005CA4  EF22  F02E         	goto	l1895
   414  005CA8                     l110:
   415                           
   416                           ;../Practica5.X/main.c: 383:          PORTAbits.RA0 = 0;
   417  005CA8  9080               	bcf	128,0,c	;volatile
   418  005CAA  EF22  F02E         	goto	l1895
   419  005CAE  EF00  F000         	goto	start
   420  005CB2                     __end_of_main:
   421                           	callstack 0
   422                           
   423 ;; *************** function _confT0 *****************
   424 ;; Defined at:
   425 ;;		line 60 in file "../Practica5.X/main.c"
   426 ;; Parameters:    Size  Location     Type
   427 ;;		None
   428 ;; Auto vars:     Size  Location     Type
   429 ;;		None
   430 ;; Return value:  Size  Location     Type
   431 ;;                  1    wreg      void 
   432 ;; Registers used:
   433 ;;		wreg, status,2
   434 ;; Tracked objects:
   435 ;;		On entry : 0/0
   436 ;;		On exit  : 0/0
   437 ;;		Unchanged: 0/0
   438 ;; Data sizes:     COMRAM   BANK0   BANK1   BANK2   BANK3   BANK4   BANK5   BANK6   BANK7
   439 ;;      Params:         0       0       0       0       0       0       0       0       0
   440 ;;      Locals:         0       0       0       0       0       0       0       0       0
   441 ;;      Temps:          0       0       0       0       0       0       0       0       0
   442 ;;      Totals:         0       0       0       0       0       0       0       0       0
   443 ;;Total ram usage:        0 bytes
   444 ;; Hardware stack levels used: 1
   445 ;; This function calls:
   446 ;;		Nothing
   447 ;; This function is called by:
   448 ;;		_main
   449 ;; This function uses a non-reentrant model
   450 ;;
   451                           
   452                           	psect	text1
   453  005BA8                     __ptext1:
   454                           	callstack 0
   455  005BA8                     _confT0:
   456                           	callstack 30
   457  005BA8                     
   458                           ;../Practica5.X/main.c: 62:     T0CONbits.TMR0ON = 1;
   459  005BA8  8ED5               	bsf	213,7,c	;volatile
   460                           
   461                           ;../Practica5.X/main.c: 63:       T0CONbits.T08BIT = 1;
   462  005BAA  8CD5               	bsf	213,6,c	;volatile
   463                           
   464                           ;../Practica5.X/main.c: 64:       T0CONbits.T0CS = 0;
   465  005BAC  9AD5               	bcf	213,5,c	;volatile
   466                           
   467                           ;../Practica5.X/main.c: 65:       T0CONbits.T0SE = 0;
   468  005BAE  98D5               	bcf	213,4,c	;volatile
   469                           
   470                           ;../Practica5.X/main.c: 66:       T0CONbits.PSA = 0;
   471  005BB0  96D5               	bcf	213,3,c	;volatile
   472  005BB2                     
   473                           ;../Practica5.X/main.c: 67:       T0CONbits.T0PS = 0b110;
   474  005BB2  50D5               	movf	213,w,c	;volatile
   475  005BB4  0BF8               	andlw	-8
   476  005BB6  0906               	iorlw	6
   477  005BB8  6ED5               	movwf	213,c	;volatile
   478  005BBA                     
   479                           ;../Practica5.X/main.c: 69:       INTCONbits.TMR0IE = 1;
   480  005BBA  8AF2               	bsf	242,5,c	;volatile
   481  005BBC  0012               	return		;funcret
   482  005BBE                     __end_of_confT0:
   483                           	callstack 0
   484                           
   485 ;; *************** function _cancion3 *****************
   486 ;; Defined at:
   487 ;;		line 265 in file "../Practica5.X/main.c"
   488 ;; Parameters:    Size  Location     Type
   489 ;;		None
   490 ;; Auto vars:     Size  Location     Type
   491 ;;		None
   492 ;; Return value:  Size  Location     Type
   493 ;;                  1    wreg      void 
   494 ;; Registers used:
   495 ;;		wreg, status,2, status,0, cstack
   496 ;; Tracked objects:
   497 ;;		On entry : 0/0
   498 ;;		On exit  : 0/0
   499 ;;		Unchanged: 0/0
   500 ;; Data sizes:     COMRAM   BANK0   BANK1   BANK2   BANK3   BANK4   BANK5   BANK6   BANK7
   501 ;;      Params:         0       0       0       0       0       0       0       0       0
   502 ;;      Locals:         0       0       0       0       0       0       0       0       0
   503 ;;      Temps:          0       0       0       0       0       0       0       0       0
   504 ;;      Totals:         0       0       0       0       0       0       0       0       0
   505 ;;Total ram usage:        0 bytes
   506 ;; Hardware stack levels used: 1
   507 ;; Hardware stack levels required when called: 3
   508 ;; This function calls:
   509 ;;		_silencio
   510 ;;		_tocar_nota
   511 ;; This function is called by:
   512 ;;		_main
   513 ;; This function uses a non-reentrant model
   514 ;;
   515                           
   516                           	psect	text2
   517  00765E                     __ptext2:
   518                           	callstack 0
   519  00765E                     _cancion3:
   520                           	callstack 27
   521  00765E                     
   522                           ;../Practica5.X/main.c: 267:       tocar_nota(500,2.70);
   523  00765E  0E01               	movlw	1
   524  007660  6E33               	movwf	(tocar_nota@duracion+1)^0,c
   525  007662  0EF4               	movlw	244
   526  007664  6E32               	movwf	tocar_nota@duracion^0,c
   527  007666  0ECD               	movlw	205
   528  007668  6E34               	movwf	tocar_nota@tfrec^0,c
   529  00766A  0ECC               	movlw	204
   530  00766C  6E35               	movwf	(tocar_nota@tfrec+1)^0,c
   531  00766E  0E2C               	movlw	44
   532  007670  6E36               	movwf	(tocar_nota@tfrec+2)^0,c
   533  007672  0E40               	movlw	64
   534  007674  6E37               	movwf	(tocar_nota@tfrec+3)^0,c
   535  007676  EC94  F02F         	call	_tocar_nota	;wreg free
   536                           
   537                           ;../Practica5.X/main.c: 268:  tocar_nota(500,2.70);
   538  00767A  0E01               	movlw	1
   539  00767C  6E33               	movwf	(tocar_nota@duracion+1)^0,c
   540  00767E  0EF4               	movlw	244
   541  007680  6E32               	movwf	tocar_nota@duracion^0,c
   542  007682  0ECD               	movlw	205
   543  007684  6E34               	movwf	tocar_nota@tfrec^0,c
   544  007686  0ECC               	movlw	204
   545  007688  6E35               	movwf	(tocar_nota@tfrec+1)^0,c
   546  00768A  0E2C               	movlw	44
   547  00768C  6E36               	movwf	(tocar_nota@tfrec+2)^0,c
   548  00768E  0E40               	movlw	64
   549  007690  6E37               	movwf	(tocar_nota@tfrec+3)^0,c
   550  007692  EC94  F02F         	call	_tocar_nota	;wreg free
   551                           
   552                           ;../Practica5.X/main.c: 269: tocar_nota(500,2.70);
   553  007696  0E01               	movlw	1
   554  007698  6E33               	movwf	(tocar_nota@duracion+1)^0,c
   555  00769A  0EF4               	movlw	244
   556  00769C  6E32               	movwf	tocar_nota@duracion^0,c
   557  00769E  0ECD               	movlw	205
   558  0076A0  6E34               	movwf	tocar_nota@tfrec^0,c
   559  0076A2  0ECC               	movlw	204
   560  0076A4  6E35               	movwf	(tocar_nota@tfrec+1)^0,c
   561  0076A6  0E2C               	movlw	44
   562  0076A8  6E36               	movwf	(tocar_nota@tfrec+2)^0,c
   563  0076AA  0E40               	movlw	64
   564  0076AC  6E37               	movwf	(tocar_nota@tfrec+3)^0,c
   565  0076AE  EC94  F02F         	call	_tocar_nota	;wreg free
   566                           
   567                           ;../Practica5.X/main.c: 270: tocar_nota(500,2.70);
   568  0076B2  0E01               	movlw	1
   569  0076B4  6E33               	movwf	(tocar_nota@duracion+1)^0,c
   570  0076B6  0EF4               	movlw	244
   571  0076B8  6E32               	movwf	tocar_nota@duracion^0,c
   572  0076BA  0ECD               	movlw	205
   573  0076BC  6E34               	movwf	tocar_nota@tfrec^0,c
   574  0076BE  0ECC               	movlw	204
   575  0076C0  6E35               	movwf	(tocar_nota@tfrec+1)^0,c
   576  0076C2  0E2C               	movlw	44
   577  0076C4  6E36               	movwf	(tocar_nota@tfrec+2)^0,c
   578  0076C6  0E40               	movlw	64
   579  0076C8  6E37               	movwf	(tocar_nota@tfrec+3)^0,c
   580  0076CA  EC94  F02F         	call	_tocar_nota	;wreg free
   581                           
   582                           ;../Practica5.X/main.c: 271: tocar_nota(375,2.73);
   583  0076CE  0E01               	movlw	1
   584  0076D0  6E33               	movwf	(tocar_nota@duracion+1)^0,c
   585  0076D2  0E77               	movlw	119
   586  0076D4  6E32               	movwf	tocar_nota@duracion^0,c
   587  0076D6  0E52               	movlw	82
   588  0076D8  6E34               	movwf	tocar_nota@tfrec^0,c
   589  0076DA  0EB8               	movlw	184
   590  0076DC  6E35               	movwf	(tocar_nota@tfrec+1)^0,c
   591  0076DE  0E2E               	movlw	46
   592  0076E0  6E36               	movwf	(tocar_nota@tfrec+2)^0,c
   593  0076E2  0E40               	movlw	64
   594  0076E4  6E37               	movwf	(tocar_nota@tfrec+3)^0,c
   595  0076E6  EC94  F02F         	call	_tocar_nota	;wreg free
   596                           
   597                           ;../Practica5.X/main.c: 272: tocar_nota(375,2.73);
   598  0076EA  0E01               	movlw	1
   599  0076EC  6E33               	movwf	(tocar_nota@duracion+1)^0,c
   600  0076EE  0E77               	movlw	119
   601  0076F0  6E32               	movwf	tocar_nota@duracion^0,c
   602  0076F2  0E52               	movlw	82
   603  0076F4  6E34               	movwf	tocar_nota@tfrec^0,c
   604  0076F6  0EB8               	movlw	184
   605  0076F8  6E35               	movwf	(tocar_nota@tfrec+1)^0,c
   606  0076FA  0E2E               	movlw	46
   607  0076FC  6E36               	movwf	(tocar_nota@tfrec+2)^0,c
   608  0076FE  0E40               	movlw	64
   609  007700  6E37               	movwf	(tocar_nota@tfrec+3)^0,c
   610  007702  EC94  F02F         	call	_tocar_nota	;wreg free
   611                           
   612                           ;../Practica5.X/main.c: 273: tocar_nota(375,2.73);
   613  007706  0E01               	movlw	1
   614  007708  6E33               	movwf	(tocar_nota@duracion+1)^0,c
   615  00770A  0E77               	movlw	119
   616  00770C  6E32               	movwf	tocar_nota@duracion^0,c
   617  00770E  0E52               	movlw	82
   618  007710  6E34               	movwf	tocar_nota@tfrec^0,c
   619  007712  0EB8               	movlw	184
   620  007714  6E35               	movwf	(tocar_nota@tfrec+1)^0,c
   621  007716  0E2E               	movlw	46
   622  007718  6E36               	movwf	(tocar_nota@tfrec+2)^0,c
   623  00771A  0E40               	movlw	64
   624  00771C  6E37               	movwf	(tocar_nota@tfrec+3)^0,c
   625  00771E  EC94  F02F         	call	_tocar_nota	;wreg free
   626                           
   627                           ;../Practica5.X/main.c: 274: tocar_nota(375,2.73);
   628  007722  0E01               	movlw	1
   629  007724  6E33               	movwf	(tocar_nota@duracion+1)^0,c
   630  007726  0E77               	movlw	119
   631  007728  6E32               	movwf	tocar_nota@duracion^0,c
   632  00772A  0E52               	movlw	82
   633  00772C  6E34               	movwf	tocar_nota@tfrec^0,c
   634  00772E  0EB8               	movlw	184
   635  007730  6E35               	movwf	(tocar_nota@tfrec+1)^0,c
   636  007732  0E2E               	movlw	46
   637  007734  6E36               	movwf	(tocar_nota@tfrec+2)^0,c
   638  007736  0E40               	movlw	64
   639  007738  6E37               	movwf	(tocar_nota@tfrec+3)^0,c
   640  00773A  EC94  F02F         	call	_tocar_nota	;wreg free
   641                           
   642                           ;../Practica5.X/main.c: 275: tocar_nota(500,2.70);
   643  00773E  0E01               	movlw	1
   644  007740  6E33               	movwf	(tocar_nota@duracion+1)^0,c
   645  007742  0EF4               	movlw	244
   646  007744  6E32               	movwf	tocar_nota@duracion^0,c
   647  007746  0ECD               	movlw	205
   648  007748  6E34               	movwf	tocar_nota@tfrec^0,c
   649  00774A  0ECC               	movlw	204
   650  00774C  6E35               	movwf	(tocar_nota@tfrec+1)^0,c
   651  00774E  0E2C               	movlw	44
   652  007750  6E36               	movwf	(tocar_nota@tfrec+2)^0,c
   653  007752  0E40               	movlw	64
   654  007754  6E37               	movwf	(tocar_nota@tfrec+3)^0,c
   655  007756  EC94  F02F         	call	_tocar_nota	;wreg free
   656                           
   657                           ;../Practica5.X/main.c: 276: tocar_nota(375,2.73);
   658  00775A  0E01               	movlw	1
   659  00775C  6E33               	movwf	(tocar_nota@duracion+1)^0,c
   660  00775E  0E77               	movlw	119
   661  007760  6E32               	movwf	tocar_nota@duracion^0,c
   662  007762  0E52               	movlw	82
   663  007764  6E34               	movwf	tocar_nota@tfrec^0,c
   664  007766  0EB8               	movlw	184
   665  007768  6E35               	movwf	(tocar_nota@tfrec+1)^0,c
   666  00776A  0E2E               	movlw	46
   667  00776C  6E36               	movwf	(tocar_nota@tfrec+2)^0,c
   668  00776E  0E40               	movlw	64
   669  007770  6E37               	movwf	(tocar_nota@tfrec+3)^0,c
   670  007772  EC94  F02F         	call	_tocar_nota	;wreg free
   671                           
   672                           ;../Practica5.X/main.c: 277: tocar_nota(125,3.40);
   673  007776  0E00               	movlw	0
   674  007778  6E33               	movwf	(tocar_nota@duracion+1)^0,c
   675  00777A  0E7D               	movlw	125
   676  00777C  6E32               	movwf	tocar_nota@duracion^0,c
   677  00777E  0E9A               	movlw	154
   678  007780  6E34               	movwf	tocar_nota@tfrec^0,c
   679  007782  0E99               	movlw	153
   680  007784  6E35               	movwf	(tocar_nota@tfrec+1)^0,c
   681  007786  0E59               	movlw	89
   682  007788  6E36               	movwf	(tocar_nota@tfrec+2)^0,c
   683  00778A  0E40               	movlw	64
   684  00778C  6E37               	movwf	(tocar_nota@tfrec+3)^0,c
   685  00778E  EC94  F02F         	call	_tocar_nota	;wreg free
   686                           
   687                           ;../Practica5.X/main.c: 278: tocar_nota(125,3.40);
   688  007792  0E00               	movlw	0
   689  007794  6E33               	movwf	(tocar_nota@duracion+1)^0,c
   690  007796  0E7D               	movlw	125
   691  007798  6E32               	movwf	tocar_nota@duracion^0,c
   692  00779A  0E9A               	movlw	154
   693  00779C  6E34               	movwf	tocar_nota@tfrec^0,c
   694  00779E  0E99               	movlw	153
   695  0077A0  6E35               	movwf	(tocar_nota@tfrec+1)^0,c
   696  0077A2  0E59               	movlw	89
   697  0077A4  6E36               	movwf	(tocar_nota@tfrec+2)^0,c
   698  0077A6  0E40               	movlw	64
   699  0077A8  6E37               	movwf	(tocar_nota@tfrec+3)^0,c
   700  0077AA  EC94  F02F         	call	_tocar_nota	;wreg free
   701                           
   702                           ;../Practica5.X/main.c: 279: tocar_nota(125,3.40);
   703  0077AE  0E00               	movlw	0
   704  0077B0  6E33               	movwf	(tocar_nota@duracion+1)^0,c
   705  0077B2  0E7D               	movlw	125
   706  0077B4  6E32               	movwf	tocar_nota@duracion^0,c
   707  0077B6  0E9A               	movlw	154
   708  0077B8  6E34               	movwf	tocar_nota@tfrec^0,c
   709  0077BA  0E99               	movlw	153
   710  0077BC  6E35               	movwf	(tocar_nota@tfrec+1)^0,c
   711  0077BE  0E59               	movlw	89
   712  0077C0  6E36               	movwf	(tocar_nota@tfrec+2)^0,c
   713  0077C2  0E40               	movlw	64
   714  0077C4  6E37               	movwf	(tocar_nota@tfrec+3)^0,c
   715  0077C6  EC94  F02F         	call	_tocar_nota	;wreg free
   716                           
   717                           ;../Practica5.X/main.c: 280: tocar_nota(375,3.03);
   718  0077CA  0E01               	movlw	1
   719  0077CC  6E33               	movwf	(tocar_nota@duracion+1)^0,c
   720  0077CE  0E77               	movlw	119
   721  0077D0  6E32               	movwf	tocar_nota@duracion^0,c
   722  0077D2  0E85               	movlw	133
   723  0077D4  6E34               	movwf	tocar_nota@tfrec^0,c
   724  0077D6  0EEB               	movlw	235
   725  0077D8  6E35               	movwf	(tocar_nota@tfrec+1)^0,c
   726  0077DA  0E41               	movlw	65
   727  0077DC  6E36               	movwf	(tocar_nota@tfrec+2)^0,c
   728  0077DE  0E40               	movlw	64
   729  0077E0  6E37               	movwf	(tocar_nota@tfrec+3)^0,c
   730  0077E2  EC94  F02F         	call	_tocar_nota	;wreg free
   731                           
   732                           ;../Practica5.X/main.c: 281: tocar_nota(375,3.03);
   733  0077E6  0E01               	movlw	1
   734  0077E8  6E33               	movwf	(tocar_nota@duracion+1)^0,c
   735  0077EA  0E77               	movlw	119
   736  0077EC  6E32               	movwf	tocar_nota@duracion^0,c
   737  0077EE  0E85               	movlw	133
   738  0077F0  6E34               	movwf	tocar_nota@tfrec^0,c
   739  0077F2  0EEB               	movlw	235
   740  0077F4  6E35               	movwf	(tocar_nota@tfrec+1)^0,c
   741  0077F6  0E41               	movlw	65
   742  0077F8  6E36               	movwf	(tocar_nota@tfrec+2)^0,c
   743  0077FA  0E40               	movlw	64
   744  0077FC  6E37               	movwf	(tocar_nota@tfrec+3)^0,c
   745  0077FE  EC94  F02F         	call	_tocar_nota	;wreg free
   746                           
   747                           ;../Practica5.X/main.c: 282: tocar_nota(500,2.70);
   748  007802  0E01               	movlw	1
   749  007804  6E33               	movwf	(tocar_nota@duracion+1)^0,c
   750  007806  0EF4               	movlw	244
   751  007808  6E32               	movwf	tocar_nota@duracion^0,c
   752  00780A  0ECD               	movlw	205
   753  00780C  6E34               	movwf	tocar_nota@tfrec^0,c
   754  00780E  0ECC               	movlw	204
   755  007810  6E35               	movwf	(tocar_nota@tfrec+1)^0,c
   756  007812  0E2C               	movlw	44
   757  007814  6E36               	movwf	(tocar_nota@tfrec+2)^0,c
   758  007816  0E40               	movlw	64
   759  007818  6E37               	movwf	(tocar_nota@tfrec+3)^0,c
   760  00781A  EC94  F02F         	call	_tocar_nota	;wreg free
   761                           
   762                           ;../Practica5.X/main.c: 283: tocar_nota(375,2.73);
   763  00781E  0E01               	movlw	1
   764  007820  6E33               	movwf	(tocar_nota@duracion+1)^0,c
   765  007822  0E77               	movlw	119
   766  007824  6E32               	movwf	tocar_nota@duracion^0,c
   767  007826  0E52               	movlw	82
   768  007828  6E34               	movwf	tocar_nota@tfrec^0,c
   769  00782A  0EB8               	movlw	184
   770  00782C  6E35               	movwf	(tocar_nota@tfrec+1)^0,c
   771  00782E  0E2E               	movlw	46
   772  007830  6E36               	movwf	(tocar_nota@tfrec+2)^0,c
   773  007832  0E40               	movlw	64
   774  007834  6E37               	movwf	(tocar_nota@tfrec+3)^0,c
   775  007836  EC94  F02F         	call	_tocar_nota	;wreg free
   776                           
   777                           ;../Practica5.X/main.c: 284: tocar_nota(375,2.73);
   778  00783A  0E01               	movlw	1
   779  00783C  6E33               	movwf	(tocar_nota@duracion+1)^0,c
   780  00783E  0E77               	movlw	119
   781  007840  6E32               	movwf	tocar_nota@duracion^0,c
   782  007842  0E52               	movlw	82
   783  007844  6E34               	movwf	tocar_nota@tfrec^0,c
   784  007846  0EB8               	movlw	184
   785  007848  6E35               	movwf	(tocar_nota@tfrec+1)^0,c
   786  00784A  0E2E               	movlw	46
   787  00784C  6E36               	movwf	(tocar_nota@tfrec+2)^0,c
   788  00784E  0E40               	movlw	64
   789  007850  6E37               	movwf	(tocar_nota@tfrec+3)^0,c
   790  007852  EC94  F02F         	call	_tocar_nota	;wreg free
   791                           
   792                           ;../Practica5.X/main.c: 285: tocar_nota(375,2.73);
   793  007856  0E01               	movlw	1
   794  007858  6E33               	movwf	(tocar_nota@duracion+1)^0,c
   795  00785A  0E77               	movlw	119
   796  00785C  6E32               	movwf	tocar_nota@duracion^0,c
   797  00785E  0E52               	movlw	82
   798  007860  6E34               	movwf	tocar_nota@tfrec^0,c
   799  007862  0EB8               	movlw	184
   800  007864  6E35               	movwf	(tocar_nota@tfrec+1)^0,c
   801  007866  0E2E               	movlw	46
   802  007868  6E36               	movwf	(tocar_nota@tfrec+2)^0,c
   803  00786A  0E40               	movlw	64
   804  00786C  6E37               	movwf	(tocar_nota@tfrec+3)^0,c
   805  00786E  EC94  F02F         	call	_tocar_nota	;wreg free
   806                           
   807                           ;../Practica5.X/main.c: 286: tocar_nota(375,2.73);
   808  007872  0E01               	movlw	1
   809  007874  6E33               	movwf	(tocar_nota@duracion+1)^0,c
   810  007876  0E77               	movlw	119
   811  007878  6E32               	movwf	tocar_nota@duracion^0,c
   812  00787A  0E52               	movlw	82
   813  00787C  6E34               	movwf	tocar_nota@tfrec^0,c
   814  00787E  0EB8               	movlw	184
   815  007880  6E35               	movwf	(tocar_nota@tfrec+1)^0,c
   816  007882  0E2E               	movlw	46
   817  007884  6E36               	movwf	(tocar_nota@tfrec+2)^0,c
   818  007886  0E40               	movlw	64
   819  007888  6E37               	movwf	(tocar_nota@tfrec+3)^0,c
   820  00788A  EC94  F02F         	call	_tocar_nota	;wreg free
   821                           
   822                           ;../Practica5.X/main.c: 287: tocar_nota(375,2.73);
   823  00788E  0E01               	movlw	1
   824  007890  6E33               	movwf	(tocar_nota@duracion+1)^0,c
   825  007892  0E77               	movlw	119
   826  007894  6E32               	movwf	tocar_nota@duracion^0,c
   827  007896  0E52               	movlw	82
   828  007898  6E34               	movwf	tocar_nota@tfrec^0,c
   829  00789A  0EB8               	movlw	184
   830  00789C  6E35               	movwf	(tocar_nota@tfrec+1)^0,c
   831  00789E  0E2E               	movlw	46
   832  0078A0  6E36               	movwf	(tocar_nota@tfrec+2)^0,c
   833  0078A2  0E40               	movlw	64
   834  0078A4  6E37               	movwf	(tocar_nota@tfrec+3)^0,c
   835  0078A6  EC94  F02F         	call	_tocar_nota	;wreg free
   836                           
   837                           ;../Practica5.X/main.c: 288:  tocar_nota(375,3.03);
   838  0078AA  0E01               	movlw	1
   839  0078AC  6E33               	movwf	(tocar_nota@duracion+1)^0,c
   840  0078AE  0E77               	movlw	119
   841  0078B0  6E32               	movwf	tocar_nota@duracion^0,c
   842  0078B2  0E85               	movlw	133
   843  0078B4  6E34               	movwf	tocar_nota@tfrec^0,c
   844  0078B6  0EEB               	movlw	235
   845  0078B8  6E35               	movwf	(tocar_nota@tfrec+1)^0,c
   846  0078BA  0E41               	movlw	65
   847  0078BC  6E36               	movwf	(tocar_nota@tfrec+2)^0,c
   848  0078BE  0E40               	movlw	64
   849  0078C0  6E37               	movwf	(tocar_nota@tfrec+3)^0,c
   850  0078C2  EC94  F02F         	call	_tocar_nota	;wreg free
   851                           
   852                           ;../Practica5.X/main.c: 289: tocar_nota(125,2.27);
   853  0078C6  0E00               	movlw	0
   854  0078C8  6E33               	movwf	(tocar_nota@duracion+1)^0,c
   855  0078CA  0E7D               	movlw	125
   856  0078CC  6E32               	movwf	tocar_nota@duracion^0,c
   857  0078CE  0EAE               	movlw	174
   858  0078D0  6E34               	movwf	tocar_nota@tfrec^0,c
   859  0078D2  0E47               	movlw	71
   860  0078D4  6E35               	movwf	(tocar_nota@tfrec+1)^0,c
   861  0078D6  0E11               	movlw	17
   862  0078D8  6E36               	movwf	(tocar_nota@tfrec+2)^0,c
   863  0078DA  0E40               	movlw	64
   864  0078DC  6E37               	movwf	(tocar_nota@tfrec+3)^0,c
   865  0078DE  EC94  F02F         	call	_tocar_nota	;wreg free
   866                           
   867                           ;../Practica5.X/main.c: 290:   tocar_nota(1000,2.86);
   868  0078E2  0E03               	movlw	3
   869  0078E4  6E33               	movwf	(tocar_nota@duracion+1)^0,c
   870  0078E6  0EE8               	movlw	232
   871  0078E8  6E32               	movwf	tocar_nota@duracion^0,c
   872  0078EA  0E3D               	movlw	61
   873  0078EC  6E34               	movwf	tocar_nota@tfrec^0,c
   874  0078EE  0E0A               	movlw	10
   875  0078F0  6E35               	movwf	(tocar_nota@tfrec+1)^0,c
   876  0078F2  0E37               	movlw	55
   877  0078F4  6E36               	movwf	(tocar_nota@tfrec+2)^0,c
   878  0078F6  0E40               	movlw	64
   879  0078F8  6E37               	movwf	(tocar_nota@tfrec+3)^0,c
   880  0078FA  EC94  F02F         	call	_tocar_nota	;wreg free
   881                           
   882                           ;../Practica5.X/main.c: 291: tocar_nota(125,3.82);
   883  0078FE  0E00               	movlw	0
   884  007900  6E33               	movwf	(tocar_nota@duracion+1)^0,c
   885  007902  0E7D               	movlw	125
   886  007904  6E32               	movwf	tocar_nota@duracion^0,c
   887  007906  0EE1               	movlw	225
   888  007908  6E34               	movwf	tocar_nota@tfrec^0,c
   889  00790A  0E7A               	movlw	122
   890  00790C  6E35               	movwf	(tocar_nota@tfrec+1)^0,c
   891  00790E  0E74               	movlw	116
   892  007910  6E36               	movwf	(tocar_nota@tfrec+2)^0,c
   893  007912  0E40               	movlw	64
   894  007914  6E37               	movwf	(tocar_nota@tfrec+3)^0,c
   895  007916  EC94  F02F         	call	_tocar_nota	;wreg free
   896                           
   897                           ;../Practica5.X/main.c: 292: tocar_nota(375,3.03);
   898  00791A  0E01               	movlw	1
   899  00791C  6E33               	movwf	(tocar_nota@duracion+1)^0,c
   900  00791E  0E77               	movlw	119
   901  007920  6E32               	movwf	tocar_nota@duracion^0,c
   902  007922  0E85               	movlw	133
   903  007924  6E34               	movwf	tocar_nota@tfrec^0,c
   904  007926  0EEB               	movlw	235
   905  007928  6E35               	movwf	(tocar_nota@tfrec+1)^0,c
   906  00792A  0E41               	movlw	65
   907  00792C  6E36               	movwf	(tocar_nota@tfrec+2)^0,c
   908  00792E  0E40               	movlw	64
   909  007930  6E37               	movwf	(tocar_nota@tfrec+3)^0,c
   910  007932  EC94  F02F         	call	_tocar_nota	;wreg free
   911                           
   912                           ;../Practica5.X/main.c: 293: tocar_nota(375,3.03);
   913  007936  0E01               	movlw	1
   914  007938  6E33               	movwf	(tocar_nota@duracion+1)^0,c
   915  00793A  0E77               	movlw	119
   916  00793C  6E32               	movwf	tocar_nota@duracion^0,c
   917  00793E  0E85               	movlw	133
   918  007940  6E34               	movwf	tocar_nota@tfrec^0,c
   919  007942  0EEB               	movlw	235
   920  007944  6E35               	movwf	(tocar_nota@tfrec+1)^0,c
   921  007946  0E41               	movlw	65
   922  007948  6E36               	movwf	(tocar_nota@tfrec+2)^0,c
   923  00794A  0E40               	movlw	64
   924  00794C  6E37               	movwf	(tocar_nota@tfrec+3)^0,c
   925  00794E  EC94  F02F         	call	_tocar_nota	;wreg free
   926                           
   927                           ;../Practica5.X/main.c: 294: tocar_nota(500,2.70);
   928  007952  0E01               	movlw	1
   929  007954  6E33               	movwf	(tocar_nota@duracion+1)^0,c
   930  007956  0EF4               	movlw	244
   931  007958  6E32               	movwf	tocar_nota@duracion^0,c
   932  00795A  0ECD               	movlw	205
   933  00795C  6E34               	movwf	tocar_nota@tfrec^0,c
   934  00795E  0ECC               	movlw	204
   935  007960  6E35               	movwf	(tocar_nota@tfrec+1)^0,c
   936  007962  0E2C               	movlw	44
   937  007964  6E36               	movwf	(tocar_nota@tfrec+2)^0,c
   938  007966  0E40               	movlw	64
   939  007968  6E37               	movwf	(tocar_nota@tfrec+3)^0,c
   940  00796A  EC94  F02F         	call	_tocar_nota	;wreg free
   941                           
   942                           ;../Practica5.X/main.c: 295:  tocar_nota(500,2.70);
   943  00796E  0E01               	movlw	1
   944  007970  6E33               	movwf	(tocar_nota@duracion+1)^0,c
   945  007972  0EF4               	movlw	244
   946  007974  6E32               	movwf	tocar_nota@duracion^0,c
   947  007976  0ECD               	movlw	205
   948  007978  6E34               	movwf	tocar_nota@tfrec^0,c
   949  00797A  0ECC               	movlw	204
   950  00797C  6E35               	movwf	(tocar_nota@tfrec+1)^0,c
   951  00797E  0E2C               	movlw	44
   952  007980  6E36               	movwf	(tocar_nota@tfrec+2)^0,c
   953  007982  0E40               	movlw	64
   954  007984  6E37               	movwf	(tocar_nota@tfrec+3)^0,c
   955  007986  EC94  F02F         	call	_tocar_nota	;wreg free
   956                           
   957                           ;../Practica5.X/main.c: 296: tocar_nota(500,2.70);
   958  00798A  0E01               	movlw	1
   959  00798C  6E33               	movwf	(tocar_nota@duracion+1)^0,c
   960  00798E  0EF4               	movlw	244
   961  007990  6E32               	movwf	tocar_nota@duracion^0,c
   962  007992  0ECD               	movlw	205
   963  007994  6E34               	movwf	tocar_nota@tfrec^0,c
   964  007996  0ECC               	movlw	204
   965  007998  6E35               	movwf	(tocar_nota@tfrec+1)^0,c
   966  00799A  0E2C               	movlw	44
   967  00799C  6E36               	movwf	(tocar_nota@tfrec+2)^0,c
   968  00799E  0E40               	movlw	64
   969  0079A0  6E37               	movwf	(tocar_nota@tfrec+3)^0,c
   970  0079A2  EC94  F02F         	call	_tocar_nota	;wreg free
   971                           
   972                           ;../Practica5.X/main.c: 297:  tocar_nota(500,2.70);
   973  0079A6  0E01               	movlw	1
   974  0079A8  6E33               	movwf	(tocar_nota@duracion+1)^0,c
   975  0079AA  0EF4               	movlw	244
   976  0079AC  6E32               	movwf	tocar_nota@duracion^0,c
   977  0079AE  0ECD               	movlw	205
   978  0079B0  6E34               	movwf	tocar_nota@tfrec^0,c
   979  0079B2  0ECC               	movlw	204
   980  0079B4  6E35               	movwf	(tocar_nota@tfrec+1)^0,c
   981  0079B6  0E2C               	movlw	44
   982  0079B8  6E36               	movwf	(tocar_nota@tfrec+2)^0,c
   983  0079BA  0E40               	movlw	64
   984  0079BC  6E37               	movwf	(tocar_nota@tfrec+3)^0,c
   985  0079BE  EC94  F02F         	call	_tocar_nota	;wreg free
   986                           
   987                           ;../Practica5.X/main.c: 298: tocar_nota(500,2.70);
   988  0079C2  0E01               	movlw	1
   989  0079C4  6E33               	movwf	(tocar_nota@duracion+1)^0,c
   990  0079C6  0EF4               	movlw	244
   991  0079C8  6E32               	movwf	tocar_nota@duracion^0,c
   992  0079CA  0ECD               	movlw	205
   993  0079CC  6E34               	movwf	tocar_nota@tfrec^0,c
   994  0079CE  0ECC               	movlw	204
   995  0079D0  6E35               	movwf	(tocar_nota@tfrec+1)^0,c
   996  0079D2  0E2C               	movlw	44
   997  0079D4  6E36               	movwf	(tocar_nota@tfrec+2)^0,c
   998  0079D6  0E40               	movlw	64
   999  0079D8  6E37               	movwf	(tocar_nota@tfrec+3)^0,c
  1000  0079DA  EC94  F02F         	call	_tocar_nota	;wreg free
  1001                           
  1002                           ;../Practica5.X/main.c: 299: tocar_nota(500,2.70);
  1003  0079DE  0E01               	movlw	1
  1004  0079E0  6E33               	movwf	(tocar_nota@duracion+1)^0,c
  1005  0079E2  0EF4               	movlw	244
  1006  0079E4  6E32               	movwf	tocar_nota@duracion^0,c
  1007  0079E6  0ECD               	movlw	205
  1008  0079E8  6E34               	movwf	tocar_nota@tfrec^0,c
  1009  0079EA  0ECC               	movlw	204
  1010  0079EC  6E35               	movwf	(tocar_nota@tfrec+1)^0,c
  1011  0079EE  0E2C               	movlw	44
  1012  0079F0  6E36               	movwf	(tocar_nota@tfrec+2)^0,c
  1013  0079F2  0E40               	movlw	64
  1014  0079F4  6E37               	movwf	(tocar_nota@tfrec+3)^0,c
  1015  0079F6  EC94  F02F         	call	_tocar_nota	;wreg free
  1016                           
  1017                           ;../Practica5.X/main.c: 300: tocar_nota(375,2.73);
  1018  0079FA  0E01               	movlw	1
  1019  0079FC  6E33               	movwf	(tocar_nota@duracion+1)^0,c
  1020  0079FE  0E77               	movlw	119
  1021  007A00  6E32               	movwf	tocar_nota@duracion^0,c
  1022  007A02  0E52               	movlw	82
  1023  007A04  6E34               	movwf	tocar_nota@tfrec^0,c
  1024  007A06  0EB8               	movlw	184
  1025  007A08  6E35               	movwf	(tocar_nota@tfrec+1)^0,c
  1026  007A0A  0E2E               	movlw	46
  1027  007A0C  6E36               	movwf	(tocar_nota@tfrec+2)^0,c
  1028  007A0E  0E40               	movlw	64
  1029  007A10  6E37               	movwf	(tocar_nota@tfrec+3)^0,c
  1030  007A12  EC94  F02F         	call	_tocar_nota	;wreg free
  1031                           
  1032                           ;../Practica5.X/main.c: 301: tocar_nota(375,2.73);
  1033  007A16  0E01               	movlw	1
  1034  007A18  6E33               	movwf	(tocar_nota@duracion+1)^0,c
  1035  007A1A  0E77               	movlw	119
  1036  007A1C  6E32               	movwf	tocar_nota@duracion^0,c
  1037  007A1E  0E52               	movlw	82
  1038  007A20  6E34               	movwf	tocar_nota@tfrec^0,c
  1039  007A22  0EB8               	movlw	184
  1040  007A24  6E35               	movwf	(tocar_nota@tfrec+1)^0,c
  1041  007A26  0E2E               	movlw	46
  1042  007A28  6E36               	movwf	(tocar_nota@tfrec+2)^0,c
  1043  007A2A  0E40               	movlw	64
  1044  007A2C  6E37               	movwf	(tocar_nota@tfrec+3)^0,c
  1045  007A2E  EC94  F02F         	call	_tocar_nota	;wreg free
  1046                           
  1047                           ;../Practica5.X/main.c: 302: tocar_nota(375,2.73);
  1048  007A32  0E01               	movlw	1
  1049  007A34  6E33               	movwf	(tocar_nota@duracion+1)^0,c
  1050  007A36  0E77               	movlw	119
  1051  007A38  6E32               	movwf	tocar_nota@duracion^0,c
  1052  007A3A  0E52               	movlw	82
  1053  007A3C  6E34               	movwf	tocar_nota@tfrec^0,c
  1054  007A3E  0EB8               	movlw	184
  1055  007A40  6E35               	movwf	(tocar_nota@tfrec+1)^0,c
  1056  007A42  0E2E               	movlw	46
  1057  007A44  6E36               	movwf	(tocar_nota@tfrec+2)^0,c
  1058  007A46  0E40               	movlw	64
  1059  007A48  6E37               	movwf	(tocar_nota@tfrec+3)^0,c
  1060  007A4A  EC94  F02F         	call	_tocar_nota	;wreg free
  1061                           
  1062                           ;../Practica5.X/main.c: 303: tocar_nota(375,2.73);
  1063  007A4E  0E01               	movlw	1
  1064  007A50  6E33               	movwf	(tocar_nota@duracion+1)^0,c
  1065  007A52  0E77               	movlw	119
  1066  007A54  6E32               	movwf	tocar_nota@duracion^0,c
  1067  007A56  0E52               	movlw	82
  1068  007A58  6E34               	movwf	tocar_nota@tfrec^0,c
  1069  007A5A  0EB8               	movlw	184
  1070  007A5C  6E35               	movwf	(tocar_nota@tfrec+1)^0,c
  1071  007A5E  0E2E               	movlw	46
  1072  007A60  6E36               	movwf	(tocar_nota@tfrec+2)^0,c
  1073  007A62  0E40               	movlw	64
  1074  007A64  6E37               	movwf	(tocar_nota@tfrec+3)^0,c
  1075  007A66  EC94  F02F         	call	_tocar_nota	;wreg free
  1076                           
  1077                           ;../Practica5.X/main.c: 304: tocar_nota(500,2.70);
  1078  007A6A  0E01               	movlw	1
  1079  007A6C  6E33               	movwf	(tocar_nota@duracion+1)^0,c
  1080  007A6E  0EF4               	movlw	244
  1081  007A70  6E32               	movwf	tocar_nota@duracion^0,c
  1082  007A72  0ECD               	movlw	205
  1083  007A74  6E34               	movwf	tocar_nota@tfrec^0,c
  1084  007A76  0ECC               	movlw	204
  1085  007A78  6E35               	movwf	(tocar_nota@tfrec+1)^0,c
  1086  007A7A  0E2C               	movlw	44
  1087  007A7C  6E36               	movwf	(tocar_nota@tfrec+2)^0,c
  1088  007A7E  0E40               	movlw	64
  1089  007A80  6E37               	movwf	(tocar_nota@tfrec+3)^0,c
  1090  007A82  EC94  F02F         	call	_tocar_nota	;wreg free
  1091                           
  1092                           ;../Practica5.X/main.c: 305: tocar_nota(375,2.73);
  1093  007A86  0E01               	movlw	1
  1094  007A88  6E33               	movwf	(tocar_nota@duracion+1)^0,c
  1095  007A8A  0E77               	movlw	119
  1096  007A8C  6E32               	movwf	tocar_nota@duracion^0,c
  1097  007A8E  0E52               	movlw	82
  1098  007A90  6E34               	movwf	tocar_nota@tfrec^0,c
  1099  007A92  0EB8               	movlw	184
  1100  007A94  6E35               	movwf	(tocar_nota@tfrec+1)^0,c
  1101  007A96  0E2E               	movlw	46
  1102  007A98  6E36               	movwf	(tocar_nota@tfrec+2)^0,c
  1103  007A9A  0E40               	movlw	64
  1104  007A9C  6E37               	movwf	(tocar_nota@tfrec+3)^0,c
  1105  007A9E  EC94  F02F         	call	_tocar_nota	;wreg free
  1106                           
  1107                           ;../Practica5.X/main.c: 306: tocar_nota(125,3.40);
  1108  007AA2  0E00               	movlw	0
  1109  007AA4  6E33               	movwf	(tocar_nota@duracion+1)^0,c
  1110  007AA6  0E7D               	movlw	125
  1111  007AA8  6E32               	movwf	tocar_nota@duracion^0,c
  1112  007AAA  0E9A               	movlw	154
  1113  007AAC  6E34               	movwf	tocar_nota@tfrec^0,c
  1114  007AAE  0E99               	movlw	153
  1115  007AB0  6E35               	movwf	(tocar_nota@tfrec+1)^0,c
  1116  007AB2  0E59               	movlw	89
  1117  007AB4  6E36               	movwf	(tocar_nota@tfrec+2)^0,c
  1118  007AB6  0E40               	movlw	64
  1119  007AB8  6E37               	movwf	(tocar_nota@tfrec+3)^0,c
  1120  007ABA  EC94  F02F         	call	_tocar_nota	;wreg free
  1121                           
  1122                           ;../Practica5.X/main.c: 307: tocar_nota(125,3.40);
  1123  007ABE  0E00               	movlw	0
  1124  007AC0  6E33               	movwf	(tocar_nota@duracion+1)^0,c
  1125  007AC2  0E7D               	movlw	125
  1126  007AC4  6E32               	movwf	tocar_nota@duracion^0,c
  1127  007AC6  0E9A               	movlw	154
  1128  007AC8  6E34               	movwf	tocar_nota@tfrec^0,c
  1129  007ACA  0E99               	movlw	153
  1130  007ACC  6E35               	movwf	(tocar_nota@tfrec+1)^0,c
  1131  007ACE  0E59               	movlw	89
  1132  007AD0  6E36               	movwf	(tocar_nota@tfrec+2)^0,c
  1133  007AD2  0E40               	movlw	64
  1134  007AD4  6E37               	movwf	(tocar_nota@tfrec+3)^0,c
  1135  007AD6  EC94  F02F         	call	_tocar_nota	;wreg free
  1136                           
  1137                           ;../Practica5.X/main.c: 308: tocar_nota(125,3.40);
  1138  007ADA  0E00               	movlw	0
  1139  007ADC  6E33               	movwf	(tocar_nota@duracion+1)^0,c
  1140  007ADE  0E7D               	movlw	125
  1141  007AE0  6E32               	movwf	tocar_nota@duracion^0,c
  1142  007AE2  0E9A               	movlw	154
  1143  007AE4  6E34               	movwf	tocar_nota@tfrec^0,c
  1144  007AE6  0E99               	movlw	153
  1145  007AE8  6E35               	movwf	(tocar_nota@tfrec+1)^0,c
  1146  007AEA  0E59               	movlw	89
  1147  007AEC  6E36               	movwf	(tocar_nota@tfrec+2)^0,c
  1148  007AEE  0E40               	movlw	64
  1149  007AF0  6E37               	movwf	(tocar_nota@tfrec+3)^0,c
  1150  007AF2  EC94  F02F         	call	_tocar_nota	;wreg free
  1151                           
  1152                           ;../Practica5.X/main.c: 309: tocar_nota(375,3.03);
  1153  007AF6  0E01               	movlw	1
  1154  007AF8  6E33               	movwf	(tocar_nota@duracion+1)^0,c
  1155  007AFA  0E77               	movlw	119
  1156  007AFC  6E32               	movwf	tocar_nota@duracion^0,c
  1157  007AFE  0E85               	movlw	133
  1158  007B00  6E34               	movwf	tocar_nota@tfrec^0,c
  1159  007B02  0EEB               	movlw	235
  1160  007B04  6E35               	movwf	(tocar_nota@tfrec+1)^0,c
  1161  007B06  0E41               	movlw	65
  1162  007B08  6E36               	movwf	(tocar_nota@tfrec+2)^0,c
  1163  007B0A  0E40               	movlw	64
  1164  007B0C  6E37               	movwf	(tocar_nota@tfrec+3)^0,c
  1165  007B0E  EC94  F02F         	call	_tocar_nota	;wreg free
  1166                           
  1167                           ;../Practica5.X/main.c: 310: tocar_nota(375,3.03);
  1168  007B12  0E01               	movlw	1
  1169  007B14  6E33               	movwf	(tocar_nota@duracion+1)^0,c
  1170  007B16  0E77               	movlw	119
  1171  007B18  6E32               	movwf	tocar_nota@duracion^0,c
  1172  007B1A  0E85               	movlw	133
  1173  007B1C  6E34               	movwf	tocar_nota@tfrec^0,c
  1174  007B1E  0EEB               	movlw	235
  1175  007B20  6E35               	movwf	(tocar_nota@tfrec+1)^0,c
  1176  007B22  0E41               	movlw	65
  1177  007B24  6E36               	movwf	(tocar_nota@tfrec+2)^0,c
  1178  007B26  0E40               	movlw	64
  1179  007B28  6E37               	movwf	(tocar_nota@tfrec+3)^0,c
  1180  007B2A  EC94  F02F         	call	_tocar_nota	;wreg free
  1181                           
  1182                           ;../Practica5.X/main.c: 311: tocar_nota(500,2.70);
  1183  007B2E  0E01               	movlw	1
  1184  007B30  6E33               	movwf	(tocar_nota@duracion+1)^0,c
  1185  007B32  0EF4               	movlw	244
  1186  007B34  6E32               	movwf	tocar_nota@duracion^0,c
  1187  007B36  0ECD               	movlw	205
  1188  007B38  6E34               	movwf	tocar_nota@tfrec^0,c
  1189  007B3A  0ECC               	movlw	204
  1190  007B3C  6E35               	movwf	(tocar_nota@tfrec+1)^0,c
  1191  007B3E  0E2C               	movlw	44
  1192  007B40  6E36               	movwf	(tocar_nota@tfrec+2)^0,c
  1193  007B42  0E40               	movlw	64
  1194  007B44  6E37               	movwf	(tocar_nota@tfrec+3)^0,c
  1195  007B46  EC94  F02F         	call	_tocar_nota	;wreg free
  1196                           
  1197                           ;../Practica5.X/main.c: 312: tocar_nota(375,2.73);
  1198  007B4A  0E01               	movlw	1
  1199  007B4C  6E33               	movwf	(tocar_nota@duracion+1)^0,c
  1200  007B4E  0E77               	movlw	119
  1201  007B50  6E32               	movwf	tocar_nota@duracion^0,c
  1202  007B52  0E52               	movlw	82
  1203  007B54  6E34               	movwf	tocar_nota@tfrec^0,c
  1204  007B56  0EB8               	movlw	184
  1205  007B58  6E35               	movwf	(tocar_nota@tfrec+1)^0,c
  1206  007B5A  0E2E               	movlw	46
  1207  007B5C  6E36               	movwf	(tocar_nota@tfrec+2)^0,c
  1208  007B5E  0E40               	movlw	64
  1209  007B60  6E37               	movwf	(tocar_nota@tfrec+3)^0,c
  1210  007B62  EC94  F02F         	call	_tocar_nota	;wreg free
  1211                           
  1212                           ;../Practica5.X/main.c: 313: tocar_nota(375,2.73);
  1213  007B66  0E01               	movlw	1
  1214  007B68  6E33               	movwf	(tocar_nota@duracion+1)^0,c
  1215  007B6A  0E77               	movlw	119
  1216  007B6C  6E32               	movwf	tocar_nota@duracion^0,c
  1217  007B6E  0E52               	movlw	82
  1218  007B70  6E34               	movwf	tocar_nota@tfrec^0,c
  1219  007B72  0EB8               	movlw	184
  1220  007B74  6E35               	movwf	(tocar_nota@tfrec+1)^0,c
  1221  007B76  0E2E               	movlw	46
  1222  007B78  6E36               	movwf	(tocar_nota@tfrec+2)^0,c
  1223  007B7A  0E40               	movlw	64
  1224  007B7C  6E37               	movwf	(tocar_nota@tfrec+3)^0,c
  1225  007B7E  EC94  F02F         	call	_tocar_nota	;wreg free
  1226                           
  1227                           ;../Practica5.X/main.c: 314: tocar_nota(375,2.73);
  1228  007B82  0E01               	movlw	1
  1229  007B84  6E33               	movwf	(tocar_nota@duracion+1)^0,c
  1230  007B86  0E77               	movlw	119
  1231  007B88  6E32               	movwf	tocar_nota@duracion^0,c
  1232  007B8A  0E52               	movlw	82
  1233  007B8C  6E34               	movwf	tocar_nota@tfrec^0,c
  1234  007B8E  0EB8               	movlw	184
  1235  007B90  6E35               	movwf	(tocar_nota@tfrec+1)^0,c
  1236  007B92  0E2E               	movlw	46
  1237  007B94  6E36               	movwf	(tocar_nota@tfrec+2)^0,c
  1238  007B96  0E40               	movlw	64
  1239  007B98  6E37               	movwf	(tocar_nota@tfrec+3)^0,c
  1240  007B9A  EC94  F02F         	call	_tocar_nota	;wreg free
  1241                           
  1242                           ;../Practica5.X/main.c: 315: tocar_nota(375,2.73);
  1243  007B9E  0E01               	movlw	1
  1244  007BA0  6E33               	movwf	(tocar_nota@duracion+1)^0,c
  1245  007BA2  0E77               	movlw	119
  1246  007BA4  6E32               	movwf	tocar_nota@duracion^0,c
  1247  007BA6  0E52               	movlw	82
  1248  007BA8  6E34               	movwf	tocar_nota@tfrec^0,c
  1249  007BAA  0EB8               	movlw	184
  1250  007BAC  6E35               	movwf	(tocar_nota@tfrec+1)^0,c
  1251  007BAE  0E2E               	movlw	46
  1252  007BB0  6E36               	movwf	(tocar_nota@tfrec+2)^0,c
  1253  007BB2  0E40               	movlw	64
  1254  007BB4  6E37               	movwf	(tocar_nota@tfrec+3)^0,c
  1255  007BB6  EC94  F02F         	call	_tocar_nota	;wreg free
  1256                           
  1257                           ;../Practica5.X/main.c: 316: tocar_nota(375,2.73);
  1258  007BBA  0E01               	movlw	1
  1259  007BBC  6E33               	movwf	(tocar_nota@duracion+1)^0,c
  1260  007BBE  0E77               	movlw	119
  1261  007BC0  6E32               	movwf	tocar_nota@duracion^0,c
  1262  007BC2  0E52               	movlw	82
  1263  007BC4  6E34               	movwf	tocar_nota@tfrec^0,c
  1264  007BC6  0EB8               	movlw	184
  1265  007BC8  6E35               	movwf	(tocar_nota@tfrec+1)^0,c
  1266  007BCA  0E2E               	movlw	46
  1267  007BCC  6E36               	movwf	(tocar_nota@tfrec+2)^0,c
  1268  007BCE  0E40               	movlw	64
  1269  007BD0  6E37               	movwf	(tocar_nota@tfrec+3)^0,c
  1270  007BD2  EC94  F02F         	call	_tocar_nota	;wreg free
  1271                           
  1272                           ;../Practica5.X/main.c: 317:  tocar_nota(375,3.03);
  1273  007BD6  0E01               	movlw	1
  1274  007BD8  6E33               	movwf	(tocar_nota@duracion+1)^0,c
  1275  007BDA  0E77               	movlw	119
  1276  007BDC  6E32               	movwf	tocar_nota@duracion^0,c
  1277  007BDE  0E85               	movlw	133
  1278  007BE0  6E34               	movwf	tocar_nota@tfrec^0,c
  1279  007BE2  0EEB               	movlw	235
  1280  007BE4  6E35               	movwf	(tocar_nota@tfrec+1)^0,c
  1281  007BE6  0E41               	movlw	65
  1282  007BE8  6E36               	movwf	(tocar_nota@tfrec+2)^0,c
  1283  007BEA  0E40               	movlw	64
  1284  007BEC  6E37               	movwf	(tocar_nota@tfrec+3)^0,c
  1285  007BEE  EC94  F02F         	call	_tocar_nota	;wreg free
  1286                           
  1287                           ;../Practica5.X/main.c: 318: tocar_nota(125,2.27);
  1288  007BF2  0E00               	movlw	0
  1289  007BF4  6E33               	movwf	(tocar_nota@duracion+1)^0,c
  1290  007BF6  0E7D               	movlw	125
  1291  007BF8  6E32               	movwf	tocar_nota@duracion^0,c
  1292  007BFA  0EAE               	movlw	174
  1293  007BFC  6E34               	movwf	tocar_nota@tfrec^0,c
  1294  007BFE  0E47               	movlw	71
  1295  007C00  6E35               	movwf	(tocar_nota@tfrec+1)^0,c
  1296  007C02  0E11               	movlw	17
  1297  007C04  6E36               	movwf	(tocar_nota@tfrec+2)^0,c
  1298  007C06  0E40               	movlw	64
  1299  007C08  6E37               	movwf	(tocar_nota@tfrec+3)^0,c
  1300  007C0A  EC94  F02F         	call	_tocar_nota	;wreg free
  1301                           
  1302                           ;../Practica5.X/main.c: 319:   tocar_nota(1000,2.86);
  1303  007C0E  0E03               	movlw	3
  1304  007C10  6E33               	movwf	(tocar_nota@duracion+1)^0,c
  1305  007C12  0EE8               	movlw	232
  1306  007C14  6E32               	movwf	tocar_nota@duracion^0,c
  1307  007C16  0E3D               	movlw	61
  1308  007C18  6E34               	movwf	tocar_nota@tfrec^0,c
  1309  007C1A  0E0A               	movlw	10
  1310  007C1C  6E35               	movwf	(tocar_nota@tfrec+1)^0,c
  1311  007C1E  0E37               	movlw	55
  1312  007C20  6E36               	movwf	(tocar_nota@tfrec+2)^0,c
  1313  007C22  0E40               	movlw	64
  1314  007C24  6E37               	movwf	(tocar_nota@tfrec+3)^0,c
  1315  007C26  EC94  F02F         	call	_tocar_nota	;wreg free
  1316                           
  1317                           ;../Practica5.X/main.c: 320: tocar_nota(125,3.82);
  1318  007C2A  0E00               	movlw	0
  1319  007C2C  6E33               	movwf	(tocar_nota@duracion+1)^0,c
  1320  007C2E  0E7D               	movlw	125
  1321  007C30  6E32               	movwf	tocar_nota@duracion^0,c
  1322  007C32  0EE1               	movlw	225
  1323  007C34  6E34               	movwf	tocar_nota@tfrec^0,c
  1324  007C36  0E7A               	movlw	122
  1325  007C38  6E35               	movwf	(tocar_nota@tfrec+1)^0,c
  1326  007C3A  0E74               	movlw	116
  1327  007C3C  6E36               	movwf	(tocar_nota@tfrec+2)^0,c
  1328  007C3E  0E40               	movlw	64
  1329  007C40  6E37               	movwf	(tocar_nota@tfrec+3)^0,c
  1330  007C42  EC94  F02F         	call	_tocar_nota	;wreg free
  1331                           
  1332                           ;../Practica5.X/main.c: 321: tocar_nota(375,3.03);
  1333  007C46  0E01               	movlw	1
  1334  007C48  6E33               	movwf	(tocar_nota@duracion+1)^0,c
  1335  007C4A  0E77               	movlw	119
  1336  007C4C  6E32               	movwf	tocar_nota@duracion^0,c
  1337  007C4E  0E85               	movlw	133
  1338  007C50  6E34               	movwf	tocar_nota@tfrec^0,c
  1339  007C52  0EEB               	movlw	235
  1340  007C54  6E35               	movwf	(tocar_nota@tfrec+1)^0,c
  1341  007C56  0E41               	movlw	65
  1342  007C58  6E36               	movwf	(tocar_nota@tfrec+2)^0,c
  1343  007C5A  0E40               	movlw	64
  1344  007C5C  6E37               	movwf	(tocar_nota@tfrec+3)^0,c
  1345  007C5E  EC94  F02F         	call	_tocar_nota	;wreg free
  1346                           
  1347                           ;../Practica5.X/main.c: 322: tocar_nota(375,3.03);
  1348  007C62  0E01               	movlw	1
  1349  007C64  6E33               	movwf	(tocar_nota@duracion+1)^0,c
  1350  007C66  0E77               	movlw	119
  1351  007C68  6E32               	movwf	tocar_nota@duracion^0,c
  1352  007C6A  0E85               	movlw	133
  1353  007C6C  6E34               	movwf	tocar_nota@tfrec^0,c
  1354  007C6E  0EEB               	movlw	235
  1355  007C70  6E35               	movwf	(tocar_nota@tfrec+1)^0,c
  1356  007C72  0E41               	movlw	65
  1357  007C74  6E36               	movwf	(tocar_nota@tfrec+2)^0,c
  1358  007C76  0E40               	movlw	64
  1359  007C78  6E37               	movwf	(tocar_nota@tfrec+3)^0,c
  1360  007C7A  EC94  F02F         	call	_tocar_nota	;wreg free
  1361                           
  1362                           ;../Practica5.X/main.c: 323: tocar_nota(500,2.70);
  1363  007C7E  0E01               	movlw	1
  1364  007C80  6E33               	movwf	(tocar_nota@duracion+1)^0,c
  1365  007C82  0EF4               	movlw	244
  1366  007C84  6E32               	movwf	tocar_nota@duracion^0,c
  1367  007C86  0ECD               	movlw	205
  1368  007C88  6E34               	movwf	tocar_nota@tfrec^0,c
  1369  007C8A  0ECC               	movlw	204
  1370  007C8C  6E35               	movwf	(tocar_nota@tfrec+1)^0,c
  1371  007C8E  0E2C               	movlw	44
  1372  007C90  6E36               	movwf	(tocar_nota@tfrec+2)^0,c
  1373  007C92  0E40               	movlw	64
  1374  007C94  6E37               	movwf	(tocar_nota@tfrec+3)^0,c
  1375  007C96  EC94  F02F         	call	_tocar_nota	;wreg free
  1376                           
  1377                           ;../Practica5.X/main.c: 324:  tocar_nota(500,2.70);
  1378  007C9A  0E01               	movlw	1
  1379  007C9C  6E33               	movwf	(tocar_nota@duracion+1)^0,c
  1380  007C9E  0EF4               	movlw	244
  1381  007CA0  6E32               	movwf	tocar_nota@duracion^0,c
  1382  007CA2  0ECD               	movlw	205
  1383  007CA4  6E34               	movwf	tocar_nota@tfrec^0,c
  1384  007CA6  0ECC               	movlw	204
  1385  007CA8  6E35               	movwf	(tocar_nota@tfrec+1)^0,c
  1386  007CAA  0E2C               	movlw	44
  1387  007CAC  6E36               	movwf	(tocar_nota@tfrec+2)^0,c
  1388  007CAE  0E40               	movlw	64
  1389  007CB0  6E37               	movwf	(tocar_nota@tfrec+3)^0,c
  1390  007CB2  EC94  F02F         	call	_tocar_nota	;wreg free
  1391                           
  1392                           ;../Practica5.X/main.c: 325: tocar_nota(500,2.70);
  1393  007CB6  0E01               	movlw	1
  1394  007CB8  6E33               	movwf	(tocar_nota@duracion+1)^0,c
  1395  007CBA  0EF4               	movlw	244
  1396  007CBC  6E32               	movwf	tocar_nota@duracion^0,c
  1397  007CBE  0ECD               	movlw	205
  1398  007CC0  6E34               	movwf	tocar_nota@tfrec^0,c
  1399  007CC2  0ECC               	movlw	204
  1400  007CC4  6E35               	movwf	(tocar_nota@tfrec+1)^0,c
  1401  007CC6  0E2C               	movlw	44
  1402  007CC8  6E36               	movwf	(tocar_nota@tfrec+2)^0,c
  1403  007CCA  0E40               	movlw	64
  1404  007CCC  6E37               	movwf	(tocar_nota@tfrec+3)^0,c
  1405  007CCE  EC94  F02F         	call	_tocar_nota	;wreg free
  1406                           
  1407                           ;../Practica5.X/main.c: 326:  tocar_nota(500,2.70);
  1408  007CD2  0E01               	movlw	1
  1409  007CD4  6E33               	movwf	(tocar_nota@duracion+1)^0,c
  1410  007CD6  0EF4               	movlw	244
  1411  007CD8  6E32               	movwf	tocar_nota@duracion^0,c
  1412  007CDA  0ECD               	movlw	205
  1413  007CDC  6E34               	movwf	tocar_nota@tfrec^0,c
  1414  007CDE  0ECC               	movlw	204
  1415  007CE0  6E35               	movwf	(tocar_nota@tfrec+1)^0,c
  1416  007CE2  0E2C               	movlw	44
  1417  007CE4  6E36               	movwf	(tocar_nota@tfrec+2)^0,c
  1418  007CE6  0E40               	movlw	64
  1419  007CE8  6E37               	movwf	(tocar_nota@tfrec+3)^0,c
  1420  007CEA  EC94  F02F         	call	_tocar_nota	;wreg free
  1421                           
  1422                           ;../Practica5.X/main.c: 327: tocar_nota(500,2.70);
  1423  007CEE  0E01               	movlw	1
  1424  007CF0  6E33               	movwf	(tocar_nota@duracion+1)^0,c
  1425  007CF2  0EF4               	movlw	244
  1426  007CF4  6E32               	movwf	tocar_nota@duracion^0,c
  1427  007CF6  0ECD               	movlw	205
  1428  007CF8  6E34               	movwf	tocar_nota@tfrec^0,c
  1429  007CFA  0ECC               	movlw	204
  1430  007CFC  6E35               	movwf	(tocar_nota@tfrec+1)^0,c
  1431  007CFE  0E2C               	movlw	44
  1432  007D00  6E36               	movwf	(tocar_nota@tfrec+2)^0,c
  1433  007D02  0E40               	movlw	64
  1434  007D04  6E37               	movwf	(tocar_nota@tfrec+3)^0,c
  1435  007D06  EC94  F02F         	call	_tocar_nota	;wreg free
  1436                           
  1437                           ;../Practica5.X/main.c: 328: tocar_nota(500,2.70);
  1438  007D0A  0E01               	movlw	1
  1439  007D0C  6E33               	movwf	(tocar_nota@duracion+1)^0,c
  1440  007D0E  0EF4               	movlw	244
  1441  007D10  6E32               	movwf	tocar_nota@duracion^0,c
  1442  007D12  0ECD               	movlw	205
  1443  007D14  6E34               	movwf	tocar_nota@tfrec^0,c
  1444  007D16  0ECC               	movlw	204
  1445  007D18  6E35               	movwf	(tocar_nota@tfrec+1)^0,c
  1446  007D1A  0E2C               	movlw	44
  1447  007D1C  6E36               	movwf	(tocar_nota@tfrec+2)^0,c
  1448  007D1E  0E40               	movlw	64
  1449  007D20  6E37               	movwf	(tocar_nota@tfrec+3)^0,c
  1450  007D22  EC94  F02F         	call	_tocar_nota	;wreg free
  1451                           
  1452                           ;../Practica5.X/main.c: 329: tocar_nota(375,2.73);
  1453  007D26  0E01               	movlw	1
  1454  007D28  6E33               	movwf	(tocar_nota@duracion+1)^0,c
  1455  007D2A  0E77               	movlw	119
  1456  007D2C  6E32               	movwf	tocar_nota@duracion^0,c
  1457  007D2E  0E52               	movlw	82
  1458  007D30  6E34               	movwf	tocar_nota@tfrec^0,c
  1459  007D32  0EB8               	movlw	184
  1460  007D34  6E35               	movwf	(tocar_nota@tfrec+1)^0,c
  1461  007D36  0E2E               	movlw	46
  1462  007D38  6E36               	movwf	(tocar_nota@tfrec+2)^0,c
  1463  007D3A  0E40               	movlw	64
  1464  007D3C  6E37               	movwf	(tocar_nota@tfrec+3)^0,c
  1465  007D3E  EC94  F02F         	call	_tocar_nota	;wreg free
  1466                           
  1467                           ;../Practica5.X/main.c: 330: tocar_nota(375,2.73);
  1468  007D42  0E01               	movlw	1
  1469  007D44  6E33               	movwf	(tocar_nota@duracion+1)^0,c
  1470  007D46  0E77               	movlw	119
  1471  007D48  6E32               	movwf	tocar_nota@duracion^0,c
  1472  007D4A  0E52               	movlw	82
  1473  007D4C  6E34               	movwf	tocar_nota@tfrec^0,c
  1474  007D4E  0EB8               	movlw	184
  1475  007D50  6E35               	movwf	(tocar_nota@tfrec+1)^0,c
  1476  007D52  0E2E               	movlw	46
  1477  007D54  6E36               	movwf	(tocar_nota@tfrec+2)^0,c
  1478  007D56  0E40               	movlw	64
  1479  007D58  6E37               	movwf	(tocar_nota@tfrec+3)^0,c
  1480  007D5A  EC94  F02F         	call	_tocar_nota	;wreg free
  1481                           
  1482                           ;../Practica5.X/main.c: 331: tocar_nota(375,2.73);
  1483  007D5E  0E01               	movlw	1
  1484  007D60  6E33               	movwf	(tocar_nota@duracion+1)^0,c
  1485  007D62  0E77               	movlw	119
  1486  007D64  6E32               	movwf	tocar_nota@duracion^0,c
  1487  007D66  0E52               	movlw	82
  1488  007D68  6E34               	movwf	tocar_nota@tfrec^0,c
  1489  007D6A  0EB8               	movlw	184
  1490  007D6C  6E35               	movwf	(tocar_nota@tfrec+1)^0,c
  1491  007D6E  0E2E               	movlw	46
  1492  007D70  6E36               	movwf	(tocar_nota@tfrec+2)^0,c
  1493  007D72  0E40               	movlw	64
  1494  007D74  6E37               	movwf	(tocar_nota@tfrec+3)^0,c
  1495  007D76  EC94  F02F         	call	_tocar_nota	;wreg free
  1496                           
  1497                           ;../Practica5.X/main.c: 332: tocar_nota(375,2.73);
  1498  007D7A  0E01               	movlw	1
  1499  007D7C  6E33               	movwf	(tocar_nota@duracion+1)^0,c
  1500  007D7E  0E77               	movlw	119
  1501  007D80  6E32               	movwf	tocar_nota@duracion^0,c
  1502  007D82  0E52               	movlw	82
  1503  007D84  6E34               	movwf	tocar_nota@tfrec^0,c
  1504  007D86  0EB8               	movlw	184
  1505  007D88  6E35               	movwf	(tocar_nota@tfrec+1)^0,c
  1506  007D8A  0E2E               	movlw	46
  1507  007D8C  6E36               	movwf	(tocar_nota@tfrec+2)^0,c
  1508  007D8E  0E40               	movlw	64
  1509  007D90  6E37               	movwf	(tocar_nota@tfrec+3)^0,c
  1510  007D92  EC94  F02F         	call	_tocar_nota	;wreg free
  1511                           
  1512                           ;../Practica5.X/main.c: 333: tocar_nota(500,2.70);
  1513  007D96  0E01               	movlw	1
  1514  007D98  6E33               	movwf	(tocar_nota@duracion+1)^0,c
  1515  007D9A  0EF4               	movlw	244
  1516  007D9C  6E32               	movwf	tocar_nota@duracion^0,c
  1517  007D9E  0ECD               	movlw	205
  1518  007DA0  6E34               	movwf	tocar_nota@tfrec^0,c
  1519  007DA2  0ECC               	movlw	204
  1520  007DA4  6E35               	movwf	(tocar_nota@tfrec+1)^0,c
  1521  007DA6  0E2C               	movlw	44
  1522  007DA8  6E36               	movwf	(tocar_nota@tfrec+2)^0,c
  1523  007DAA  0E40               	movlw	64
  1524  007DAC  6E37               	movwf	(tocar_nota@tfrec+3)^0,c
  1525  007DAE  EC94  F02F         	call	_tocar_nota	;wreg free
  1526                           
  1527                           ;../Practica5.X/main.c: 334: tocar_nota(375,2.73);
  1528  007DB2  0E01               	movlw	1
  1529  007DB4  6E33               	movwf	(tocar_nota@duracion+1)^0,c
  1530  007DB6  0E77               	movlw	119
  1531  007DB8  6E32               	movwf	tocar_nota@duracion^0,c
  1532  007DBA  0E52               	movlw	82
  1533  007DBC  6E34               	movwf	tocar_nota@tfrec^0,c
  1534  007DBE  0EB8               	movlw	184
  1535  007DC0  6E35               	movwf	(tocar_nota@tfrec+1)^0,c
  1536  007DC2  0E2E               	movlw	46
  1537  007DC4  6E36               	movwf	(tocar_nota@tfrec+2)^0,c
  1538  007DC6  0E40               	movlw	64
  1539  007DC8  6E37               	movwf	(tocar_nota@tfrec+3)^0,c
  1540  007DCA  EC94  F02F         	call	_tocar_nota	;wreg free
  1541                           
  1542                           ;../Practica5.X/main.c: 335: tocar_nota(125,3.40);
  1543  007DCE  0E00               	movlw	0
  1544  007DD0  6E33               	movwf	(tocar_nota@duracion+1)^0,c
  1545  007DD2  0E7D               	movlw	125
  1546  007DD4  6E32               	movwf	tocar_nota@duracion^0,c
  1547  007DD6  0E9A               	movlw	154
  1548  007DD8  6E34               	movwf	tocar_nota@tfrec^0,c
  1549  007DDA  0E99               	movlw	153
  1550  007DDC  6E35               	movwf	(tocar_nota@tfrec+1)^0,c
  1551  007DDE  0E59               	movlw	89
  1552  007DE0  6E36               	movwf	(tocar_nota@tfrec+2)^0,c
  1553  007DE2  0E40               	movlw	64
  1554  007DE4  6E37               	movwf	(tocar_nota@tfrec+3)^0,c
  1555  007DE6  EC94  F02F         	call	_tocar_nota	;wreg free
  1556                           
  1557                           ;../Practica5.X/main.c: 336: tocar_nota(125,3.40);
  1558  007DEA  0E00               	movlw	0
  1559  007DEC  6E33               	movwf	(tocar_nota@duracion+1)^0,c
  1560  007DEE  0E7D               	movlw	125
  1561  007DF0  6E32               	movwf	tocar_nota@duracion^0,c
  1562  007DF2  0E9A               	movlw	154
  1563  007DF4  6E34               	movwf	tocar_nota@tfrec^0,c
  1564  007DF6  0E99               	movlw	153
  1565  007DF8  6E35               	movwf	(tocar_nota@tfrec+1)^0,c
  1566  007DFA  0E59               	movlw	89
  1567  007DFC  6E36               	movwf	(tocar_nota@tfrec+2)^0,c
  1568  007DFE  0E40               	movlw	64
  1569  007E00  6E37               	movwf	(tocar_nota@tfrec+3)^0,c
  1570  007E02  EC94  F02F         	call	_tocar_nota	;wreg free
  1571                           
  1572                           ;../Practica5.X/main.c: 337: tocar_nota(125,3.40);
  1573  007E06  0E00               	movlw	0
  1574  007E08  6E33               	movwf	(tocar_nota@duracion+1)^0,c
  1575  007E0A  0E7D               	movlw	125
  1576  007E0C  6E32               	movwf	tocar_nota@duracion^0,c
  1577  007E0E  0E9A               	movlw	154
  1578  007E10  6E34               	movwf	tocar_nota@tfrec^0,c
  1579  007E12  0E99               	movlw	153
  1580  007E14  6E35               	movwf	(tocar_nota@tfrec+1)^0,c
  1581  007E16  0E59               	movlw	89
  1582  007E18  6E36               	movwf	(tocar_nota@tfrec+2)^0,c
  1583  007E1A  0E40               	movlw	64
  1584  007E1C  6E37               	movwf	(tocar_nota@tfrec+3)^0,c
  1585  007E1E  EC94  F02F         	call	_tocar_nota	;wreg free
  1586                           
  1587                           ;../Practica5.X/main.c: 338: tocar_nota(375,3.03);
  1588  007E22  0E01               	movlw	1
  1589  007E24  6E33               	movwf	(tocar_nota@duracion+1)^0,c
  1590  007E26  0E77               	movlw	119
  1591  007E28  6E32               	movwf	tocar_nota@duracion^0,c
  1592  007E2A  0E85               	movlw	133
  1593  007E2C  6E34               	movwf	tocar_nota@tfrec^0,c
  1594  007E2E  0EEB               	movlw	235
  1595  007E30  6E35               	movwf	(tocar_nota@tfrec+1)^0,c
  1596  007E32  0E41               	movlw	65
  1597  007E34  6E36               	movwf	(tocar_nota@tfrec+2)^0,c
  1598  007E36  0E40               	movlw	64
  1599  007E38  6E37               	movwf	(tocar_nota@tfrec+3)^0,c
  1600  007E3A  EC94  F02F         	call	_tocar_nota	;wreg free
  1601                           
  1602                           ;../Practica5.X/main.c: 339: tocar_nota(375,3.03);
  1603  007E3E  0E01               	movlw	1
  1604  007E40  6E33               	movwf	(tocar_nota@duracion+1)^0,c
  1605  007E42  0E77               	movlw	119
  1606  007E44  6E32               	movwf	tocar_nota@duracion^0,c
  1607  007E46  0E85               	movlw	133
  1608  007E48  6E34               	movwf	tocar_nota@tfrec^0,c
  1609  007E4A  0EEB               	movlw	235
  1610  007E4C  6E35               	movwf	(tocar_nota@tfrec+1)^0,c
  1611  007E4E  0E41               	movlw	65
  1612  007E50  6E36               	movwf	(tocar_nota@tfrec+2)^0,c
  1613  007E52  0E40               	movlw	64
  1614  007E54  6E37               	movwf	(tocar_nota@tfrec+3)^0,c
  1615  007E56  EC94  F02F         	call	_tocar_nota	;wreg free
  1616                           
  1617                           ;../Practica5.X/main.c: 340: tocar_nota(500,2.70);
  1618  007E5A  0E01               	movlw	1
  1619  007E5C  6E33               	movwf	(tocar_nota@duracion+1)^0,c
  1620  007E5E  0EF4               	movlw	244
  1621  007E60  6E32               	movwf	tocar_nota@duracion^0,c
  1622  007E62  0ECD               	movlw	205
  1623  007E64  6E34               	movwf	tocar_nota@tfrec^0,c
  1624  007E66  0ECC               	movlw	204
  1625  007E68  6E35               	movwf	(tocar_nota@tfrec+1)^0,c
  1626  007E6A  0E2C               	movlw	44
  1627  007E6C  6E36               	movwf	(tocar_nota@tfrec+2)^0,c
  1628  007E6E  0E40               	movlw	64
  1629  007E70  6E37               	movwf	(tocar_nota@tfrec+3)^0,c
  1630  007E72  EC94  F02F         	call	_tocar_nota	;wreg free
  1631                           
  1632                           ;../Practica5.X/main.c: 341: tocar_nota(375,2.73);
  1633  007E76  0E01               	movlw	1
  1634  007E78  6E33               	movwf	(tocar_nota@duracion+1)^0,c
  1635  007E7A  0E77               	movlw	119
  1636  007E7C  6E32               	movwf	tocar_nota@duracion^0,c
  1637  007E7E  0E52               	movlw	82
  1638  007E80  6E34               	movwf	tocar_nota@tfrec^0,c
  1639  007E82  0EB8               	movlw	184
  1640  007E84  6E35               	movwf	(tocar_nota@tfrec+1)^0,c
  1641  007E86  0E2E               	movlw	46
  1642  007E88  6E36               	movwf	(tocar_nota@tfrec+2)^0,c
  1643  007E8A  0E40               	movlw	64
  1644  007E8C  6E37               	movwf	(tocar_nota@tfrec+3)^0,c
  1645  007E8E  EC94  F02F         	call	_tocar_nota	;wreg free
  1646                           
  1647                           ;../Practica5.X/main.c: 342: tocar_nota(375,2.73);
  1648  007E92  0E01               	movlw	1
  1649  007E94  6E33               	movwf	(tocar_nota@duracion+1)^0,c
  1650  007E96  0E77               	movlw	119
  1651  007E98  6E32               	movwf	tocar_nota@duracion^0,c
  1652  007E9A  0E52               	movlw	82
  1653  007E9C  6E34               	movwf	tocar_nota@tfrec^0,c
  1654  007E9E  0EB8               	movlw	184
  1655  007EA0  6E35               	movwf	(tocar_nota@tfrec+1)^0,c
  1656  007EA2  0E2E               	movlw	46
  1657  007EA4  6E36               	movwf	(tocar_nota@tfrec+2)^0,c
  1658  007EA6  0E40               	movlw	64
  1659  007EA8  6E37               	movwf	(tocar_nota@tfrec+3)^0,c
  1660  007EAA  EC94  F02F         	call	_tocar_nota	;wreg free
  1661                           
  1662                           ;../Practica5.X/main.c: 343: tocar_nota(375,2.73);
  1663  007EAE  0E01               	movlw	1
  1664  007EB0  6E33               	movwf	(tocar_nota@duracion+1)^0,c
  1665  007EB2  0E77               	movlw	119
  1666  007EB4  6E32               	movwf	tocar_nota@duracion^0,c
  1667  007EB6  0E52               	movlw	82
  1668  007EB8  6E34               	movwf	tocar_nota@tfrec^0,c
  1669  007EBA  0EB8               	movlw	184
  1670  007EBC  6E35               	movwf	(tocar_nota@tfrec+1)^0,c
  1671  007EBE  0E2E               	movlw	46
  1672  007EC0  6E36               	movwf	(tocar_nota@tfrec+2)^0,c
  1673  007EC2  0E40               	movlw	64
  1674  007EC4  6E37               	movwf	(tocar_nota@tfrec+3)^0,c
  1675  007EC6  EC94  F02F         	call	_tocar_nota	;wreg free
  1676                           
  1677                           ;../Practica5.X/main.c: 344: tocar_nota(375,2.73);
  1678  007ECA  0E01               	movlw	1
  1679  007ECC  6E33               	movwf	(tocar_nota@duracion+1)^0,c
  1680  007ECE  0E77               	movlw	119
  1681  007ED0  6E32               	movwf	tocar_nota@duracion^0,c
  1682  007ED2  0E52               	movlw	82
  1683  007ED4  6E34               	movwf	tocar_nota@tfrec^0,c
  1684  007ED6  0EB8               	movlw	184
  1685  007ED8  6E35               	movwf	(tocar_nota@tfrec+1)^0,c
  1686  007EDA  0E2E               	movlw	46
  1687  007EDC  6E36               	movwf	(tocar_nota@tfrec+2)^0,c
  1688  007EDE  0E40               	movlw	64
  1689  007EE0  6E37               	movwf	(tocar_nota@tfrec+3)^0,c
  1690  007EE2  EC94  F02F         	call	_tocar_nota	;wreg free
  1691                           
  1692                           ;../Practica5.X/main.c: 345: tocar_nota(375,2.73);
  1693  007EE6  0E01               	movlw	1
  1694  007EE8  6E33               	movwf	(tocar_nota@duracion+1)^0,c
  1695  007EEA  0E77               	movlw	119
  1696  007EEC  6E32               	movwf	tocar_nota@duracion^0,c
  1697  007EEE  0E52               	movlw	82
  1698  007EF0  6E34               	movwf	tocar_nota@tfrec^0,c
  1699  007EF2  0EB8               	movlw	184
  1700  007EF4  6E35               	movwf	(tocar_nota@tfrec+1)^0,c
  1701  007EF6  0E2E               	movlw	46
  1702  007EF8  6E36               	movwf	(tocar_nota@tfrec+2)^0,c
  1703  007EFA  0E40               	movlw	64
  1704  007EFC  6E37               	movwf	(tocar_nota@tfrec+3)^0,c
  1705  007EFE  EC94  F02F         	call	_tocar_nota	;wreg free
  1706                           
  1707                           ;../Practica5.X/main.c: 346:  tocar_nota(375,3.03);
  1708  007F02  0E01               	movlw	1
  1709  007F04  6E33               	movwf	(tocar_nota@duracion+1)^0,c
  1710  007F06  0E77               	movlw	119
  1711  007F08  6E32               	movwf	tocar_nota@duracion^0,c
  1712  007F0A  0E85               	movlw	133
  1713  007F0C  6E34               	movwf	tocar_nota@tfrec^0,c
  1714  007F0E  0EEB               	movlw	235
  1715  007F10  6E35               	movwf	(tocar_nota@tfrec+1)^0,c
  1716  007F12  0E41               	movlw	65
  1717  007F14  6E36               	movwf	(tocar_nota@tfrec+2)^0,c
  1718  007F16  0E40               	movlw	64
  1719  007F18  6E37               	movwf	(tocar_nota@tfrec+3)^0,c
  1720  007F1A  EC94  F02F         	call	_tocar_nota	;wreg free
  1721                           
  1722                           ;../Practica5.X/main.c: 347: tocar_nota(125,2.27);
  1723  007F1E  0E00               	movlw	0
  1724  007F20  6E33               	movwf	(tocar_nota@duracion+1)^0,c
  1725  007F22  0E7D               	movlw	125
  1726  007F24  6E32               	movwf	tocar_nota@duracion^0,c
  1727  007F26  0EAE               	movlw	174
  1728  007F28  6E34               	movwf	tocar_nota@tfrec^0,c
  1729  007F2A  0E47               	movlw	71
  1730  007F2C  6E35               	movwf	(tocar_nota@tfrec+1)^0,c
  1731  007F2E  0E11               	movlw	17
  1732  007F30  6E36               	movwf	(tocar_nota@tfrec+2)^0,c
  1733  007F32  0E40               	movlw	64
  1734  007F34  6E37               	movwf	(tocar_nota@tfrec+3)^0,c
  1735  007F36  EC94  F02F         	call	_tocar_nota	;wreg free
  1736                           
  1737                           ;../Practica5.X/main.c: 348:   tocar_nota(1000,2.86);
  1738  007F3A  0E03               	movlw	3
  1739  007F3C  6E33               	movwf	(tocar_nota@duracion+1)^0,c
  1740  007F3E  0EE8               	movlw	232
  1741  007F40  6E32               	movwf	tocar_nota@duracion^0,c
  1742  007F42  0E3D               	movlw	61
  1743  007F44  6E34               	movwf	tocar_nota@tfrec^0,c
  1744  007F46  0E0A               	movlw	10
  1745  007F48  6E35               	movwf	(tocar_nota@tfrec+1)^0,c
  1746  007F4A  0E37               	movlw	55
  1747  007F4C  6E36               	movwf	(tocar_nota@tfrec+2)^0,c
  1748  007F4E  0E40               	movlw	64
  1749  007F50  6E37               	movwf	(tocar_nota@tfrec+3)^0,c
  1750  007F52  EC94  F02F         	call	_tocar_nota	;wreg free
  1751                           
  1752                           ;../Practica5.X/main.c: 349: tocar_nota(125,3.82);
  1753  007F56  0E00               	movlw	0
  1754  007F58  6E33               	movwf	(tocar_nota@duracion+1)^0,c
  1755  007F5A  0E7D               	movlw	125
  1756  007F5C  6E32               	movwf	tocar_nota@duracion^0,c
  1757  007F5E  0EE1               	movlw	225
  1758  007F60  6E34               	movwf	tocar_nota@tfrec^0,c
  1759  007F62  0E7A               	movlw	122
  1760  007F64  6E35               	movwf	(tocar_nota@tfrec+1)^0,c
  1761  007F66  0E74               	movlw	116
  1762  007F68  6E36               	movwf	(tocar_nota@tfrec+2)^0,c
  1763  007F6A  0E40               	movlw	64
  1764  007F6C  6E37               	movwf	(tocar_nota@tfrec+3)^0,c
  1765  007F6E  EC94  F02F         	call	_tocar_nota	;wreg free
  1766                           
  1767                           ;../Practica5.X/main.c: 350: tocar_nota(375,3.03);
  1768  007F72  0E01               	movlw	1
  1769  007F74  6E33               	movwf	(tocar_nota@duracion+1)^0,c
  1770  007F76  0E77               	movlw	119
  1771  007F78  6E32               	movwf	tocar_nota@duracion^0,c
  1772  007F7A  0E85               	movlw	133
  1773  007F7C  6E34               	movwf	tocar_nota@tfrec^0,c
  1774  007F7E  0EEB               	movlw	235
  1775  007F80  6E35               	movwf	(tocar_nota@tfrec+1)^0,c
  1776  007F82  0E41               	movlw	65
  1777  007F84  6E36               	movwf	(tocar_nota@tfrec+2)^0,c
  1778  007F86  0E40               	movlw	64
  1779  007F88  6E37               	movwf	(tocar_nota@tfrec+3)^0,c
  1780  007F8A  EC94  F02F         	call	_tocar_nota	;wreg free
  1781                           
  1782                           ;../Practica5.X/main.c: 351: tocar_nota(375,3.03);
  1783  007F8E  0E01               	movlw	1
  1784  007F90  6E33               	movwf	(tocar_nota@duracion+1)^0,c
  1785  007F92  0E77               	movlw	119
  1786  007F94  6E32               	movwf	tocar_nota@duracion^0,c
  1787  007F96  0E85               	movlw	133
  1788  007F98  6E34               	movwf	tocar_nota@tfrec^0,c
  1789  007F9A  0EEB               	movlw	235
  1790  007F9C  6E35               	movwf	(tocar_nota@tfrec+1)^0,c
  1791  007F9E  0E41               	movlw	65
  1792  007FA0  6E36               	movwf	(tocar_nota@tfrec+2)^0,c
  1793  007FA2  0E40               	movlw	64
  1794  007FA4  6E37               	movwf	(tocar_nota@tfrec+3)^0,c
  1795  007FA6  EC94  F02F         	call	_tocar_nota	;wreg free
  1796                           
  1797                           ;../Practica5.X/main.c: 352: tocar_nota(500,2.70);
  1798  007FAA  0E01               	movlw	1
  1799  007FAC  6E33               	movwf	(tocar_nota@duracion+1)^0,c
  1800  007FAE  0EF4               	movlw	244
  1801  007FB0  6E32               	movwf	tocar_nota@duracion^0,c
  1802  007FB2  0ECD               	movlw	205
  1803  007FB4  6E34               	movwf	tocar_nota@tfrec^0,c
  1804  007FB6  0ECC               	movlw	204
  1805  007FB8  6E35               	movwf	(tocar_nota@tfrec+1)^0,c
  1806  007FBA  0E2C               	movlw	44
  1807  007FBC  6E36               	movwf	(tocar_nota@tfrec+2)^0,c
  1808  007FBE  0E40               	movlw	64
  1809  007FC0  6E37               	movwf	(tocar_nota@tfrec+3)^0,c
  1810  007FC2  EC94  F02F         	call	_tocar_nota	;wreg free
  1811                           
  1812                           ;../Practica5.X/main.c: 353:  tocar_nota(500,2.70);
  1813  007FC6  0E01               	movlw	1
  1814  007FC8  6E33               	movwf	(tocar_nota@duracion+1)^0,c
  1815  007FCA  0EF4               	movlw	244
  1816  007FCC  6E32               	movwf	tocar_nota@duracion^0,c
  1817  007FCE  0ECD               	movlw	205
  1818  007FD0  6E34               	movwf	tocar_nota@tfrec^0,c
  1819  007FD2  0ECC               	movlw	204
  1820  007FD4  6E35               	movwf	(tocar_nota@tfrec+1)^0,c
  1821  007FD6  0E2C               	movlw	44
  1822  007FD8  6E36               	movwf	(tocar_nota@tfrec+2)^0,c
  1823  007FDA  0E40               	movlw	64
  1824  007FDC  6E37               	movwf	(tocar_nota@tfrec+3)^0,c
  1825  007FDE  EC94  F02F         	call	_tocar_nota	;wreg free
  1826                           
  1827                           ;../Practica5.X/main.c: 354:    silencio(1000,3.822);
  1828  007FE2  0E03               	movlw	3
  1829  007FE4  6E33               	movwf	(silencio@duracion+1)^0,c
  1830  007FE6  0EE8               	movlw	232
  1831  007FE8  6E32               	movwf	silencio@duracion^0,c
  1832  007FEA  0EA6               	movlw	166
  1833  007FEC  6E34               	movwf	silencio@tfrec^0,c
  1834  007FEE  0E9B               	movlw	155
  1835  007FF0  6E35               	movwf	(silencio@tfrec+1)^0,c
  1836  007FF2  0E74               	movlw	116
  1837  007FF4  6E36               	movwf	(silencio@tfrec+2)^0,c
  1838  007FF6  0E40               	movlw	64
  1839  007FF8  6E37               	movwf	(silencio@tfrec+3)^0,c
  1840  007FFA  ECDC  F02E         	call	_silencio	;wreg free
  1841  007FFE  0012               	return		;funcret
  1842  008000                     __end_of_cancion3:
  1843                           	callstack 0
  1844                           
  1845 ;; *************** function _cancion2 *****************
  1846 ;; Defined at:
  1847 ;;		line 141 in file "../Practica5.X/main.c"
  1848 ;; Parameters:    Size  Location     Type
  1849 ;;		None
  1850 ;; Auto vars:     Size  Location     Type
  1851 ;;		None
  1852 ;; Return value:  Size  Location     Type
  1853 ;;                  1    wreg      void 
  1854 ;; Registers used:
  1855 ;;		wreg, status,2, status,0, cstack
  1856 ;; Tracked objects:
  1857 ;;		On entry : 0/0
  1858 ;;		On exit  : 0/0
  1859 ;;		Unchanged: 0/0
  1860 ;; Data sizes:     COMRAM   BANK0   BANK1   BANK2   BANK3   BANK4   BANK5   BANK6   BANK7
  1861 ;;      Params:         0       0       0       0       0       0       0       0       0
  1862 ;;      Locals:         0       0       0       0       0       0       0       0       0
  1863 ;;      Temps:          0       0       0       0       0       0       0       0       0
  1864 ;;      Totals:         0       0       0       0       0       0       0       0       0
  1865 ;;Total ram usage:        0 bytes
  1866 ;; Hardware stack levels used: 1
  1867 ;; Hardware stack levels required when called: 3
  1868 ;; This function calls:
  1869 ;;		_silencio
  1870 ;;		_tocar_nota
  1871 ;; This function is called by:
  1872 ;;		_main
  1873 ;; This function uses a non-reentrant model
  1874 ;;
  1875                           
  1876                           	psect	text3
  1877  006F94                     __ptext3:
  1878                           	callstack 0
  1879  006F94                     _cancion2:
  1880                           	callstack 27
  1881  006F94                     
  1882                           ;../Practica5.X/main.c: 144:   tocar_nota(150,1.51);
  1883  006F94  0E00               	movlw	0
  1884  006F96  6E33               	movwf	(tocar_nota@duracion+1)^0,c
  1885  006F98  0E96               	movlw	150
  1886  006F9A  6E32               	movwf	tocar_nota@duracion^0,c
  1887  006F9C  0EAE               	movlw	174
  1888  006F9E  6E34               	movwf	tocar_nota@tfrec^0,c
  1889  006FA0  0E47               	movlw	71
  1890  006FA2  6E35               	movwf	(tocar_nota@tfrec+1)^0,c
  1891  006FA4  0EC1               	movlw	193
  1892  006FA6  6E36               	movwf	(tocar_nota@tfrec+2)^0,c
  1893  006FA8  0E3F               	movlw	63
  1894  006FAA  6E37               	movwf	(tocar_nota@tfrec+3)^0,c
  1895  006FAC  EC94  F02F         	call	_tocar_nota	;wreg free
  1896                           
  1897                           ;../Practica5.X/main.c: 145:   tocar_nota(150,1.51);
  1898  006FB0  0E00               	movlw	0
  1899  006FB2  6E33               	movwf	(tocar_nota@duracion+1)^0,c
  1900  006FB4  0E96               	movlw	150
  1901  006FB6  6E32               	movwf	tocar_nota@duracion^0,c
  1902  006FB8  0EAE               	movlw	174
  1903  006FBA  6E34               	movwf	tocar_nota@tfrec^0,c
  1904  006FBC  0E47               	movlw	71
  1905  006FBE  6E35               	movwf	(tocar_nota@tfrec+1)^0,c
  1906  006FC0  0EC1               	movlw	193
  1907  006FC2  6E36               	movwf	(tocar_nota@tfrec+2)^0,c
  1908  006FC4  0E3F               	movlw	63
  1909  006FC6  6E37               	movwf	(tocar_nota@tfrec+3)^0,c
  1910  006FC8  EC94  F02F         	call	_tocar_nota	;wreg free
  1911                           
  1912                           ;../Practica5.X/main.c: 146:   tocar_nota(150,1.51);
  1913  006FCC  0E00               	movlw	0
  1914  006FCE  6E33               	movwf	(tocar_nota@duracion+1)^0,c
  1915  006FD0  0E96               	movlw	150
  1916  006FD2  6E32               	movwf	tocar_nota@duracion^0,c
  1917  006FD4  0EAE               	movlw	174
  1918  006FD6  6E34               	movwf	tocar_nota@tfrec^0,c
  1919  006FD8  0E47               	movlw	71
  1920  006FDA  6E35               	movwf	(tocar_nota@tfrec+1)^0,c
  1921  006FDC  0EC1               	movlw	193
  1922  006FDE  6E36               	movwf	(tocar_nota@tfrec+2)^0,c
  1923  006FE0  0E3F               	movlw	63
  1924  006FE2  6E37               	movwf	(tocar_nota@tfrec+3)^0,c
  1925  006FE4  EC94  F02F         	call	_tocar_nota	;wreg free
  1926                           
  1927                           ;../Practica5.X/main.c: 147:    tocar_nota(150,1.91);
  1928  006FE8  0E00               	movlw	0
  1929  006FEA  6E33               	movwf	(tocar_nota@duracion+1)^0,c
  1930  006FEC  0E96               	movlw	150
  1931  006FEE  6E32               	movwf	tocar_nota@duracion^0,c
  1932  006FF0  0EE1               	movlw	225
  1933  006FF2  6E34               	movwf	tocar_nota@tfrec^0,c
  1934  006FF4  0E7A               	movlw	122
  1935  006FF6  6E35               	movwf	(tocar_nota@tfrec+1)^0,c
  1936  006FF8  0EF4               	movlw	244
  1937  006FFA  6E36               	movwf	(tocar_nota@tfrec+2)^0,c
  1938  006FFC  0E3F               	movlw	63
  1939  006FFE  6E37               	movwf	(tocar_nota@tfrec+3)^0,c
  1940  007000  EC94  F02F         	call	_tocar_nota	;wreg free
  1941                           
  1942                           ;../Practica5.X/main.c: 148:    tocar_nota(300,1.51);
  1943  007004  0E01               	movlw	1
  1944  007006  6E33               	movwf	(tocar_nota@duracion+1)^0,c
  1945  007008  0E2C               	movlw	44
  1946  00700A  6E32               	movwf	tocar_nota@duracion^0,c
  1947  00700C  0EAE               	movlw	174
  1948  00700E  6E34               	movwf	tocar_nota@tfrec^0,c
  1949  007010  0E47               	movlw	71
  1950  007012  6E35               	movwf	(tocar_nota@tfrec+1)^0,c
  1951  007014  0EC1               	movlw	193
  1952  007016  6E36               	movwf	(tocar_nota@tfrec+2)^0,c
  1953  007018  0E3F               	movlw	63
  1954  00701A  6E37               	movwf	(tocar_nota@tfrec+3)^0,c
  1955  00701C  EC94  F02F         	call	_tocar_nota	;wreg free
  1956                           
  1957                           ;../Practica5.X/main.c: 149:    tocar_nota(300,1.276);
  1958  007020  0E01               	movlw	1
  1959  007022  6E33               	movwf	(tocar_nota@duracion+1)^0,c
  1960  007024  0E2C               	movlw	44
  1961  007026  6E32               	movwf	tocar_nota@duracion^0,c
  1962  007028  0EF8               	movlw	248
  1963  00702A  6E34               	movwf	tocar_nota@tfrec^0,c
  1964  00702C  0E53               	movlw	83
  1965  00702E  6E35               	movwf	(tocar_nota@tfrec+1)^0,c
  1966  007030  0EA3               	movlw	163
  1967  007032  6E36               	movwf	(tocar_nota@tfrec+2)^0,c
  1968  007034  0E3F               	movlw	63
  1969  007036  6E37               	movwf	(tocar_nota@tfrec+3)^0,c
  1970  007038  EC94  F02F         	call	_tocar_nota	;wreg free
  1971                           
  1972                           ;../Practica5.X/main.c: 151:   tocar_nota(300,1.91);
  1973  00703C  0E01               	movlw	1
  1974  00703E  6E33               	movwf	(tocar_nota@duracion+1)^0,c
  1975  007040  0E2C               	movlw	44
  1976  007042  6E32               	movwf	tocar_nota@duracion^0,c
  1977  007044  0EE1               	movlw	225
  1978  007046  6E34               	movwf	tocar_nota@tfrec^0,c
  1979  007048  0E7A               	movlw	122
  1980  00704A  6E35               	movwf	(tocar_nota@tfrec+1)^0,c
  1981  00704C  0EF4               	movlw	244
  1982  00704E  6E36               	movwf	(tocar_nota@tfrec+2)^0,c
  1983  007050  0E3F               	movlw	63
  1984  007052  6E37               	movwf	(tocar_nota@tfrec+3)^0,c
  1985  007054  EC94  F02F         	call	_tocar_nota	;wreg free
  1986                           
  1987                           ;../Practica5.X/main.c: 154:    tocar_nota(300,2.551);
  1988  007058  0E01               	movlw	1
  1989  00705A  6E33               	movwf	(tocar_nota@duracion+1)^0,c
  1990  00705C  0E2C               	movlw	44
  1991  00705E  6E32               	movwf	tocar_nota@duracion^0,c
  1992  007060  0E96               	movlw	150
  1993  007062  6E34               	movwf	tocar_nota@tfrec^0,c
  1994  007064  0E43               	movlw	67
  1995  007066  6E35               	movwf	(tocar_nota@tfrec+1)^0,c
  1996  007068  0E23               	movlw	35
  1997  00706A  6E36               	movwf	(tocar_nota@tfrec+2)^0,c
  1998  00706C  0E40               	movlw	64
  1999  00706E  6E37               	movwf	(tocar_nota@tfrec+3)^0,c
  2000  007070  EC94  F02F         	call	_tocar_nota	;wreg free
  2001                           
  2002                           ;../Practica5.X/main.c: 156:    tocar_nota(300,3.034);
  2003  007074  0E01               	movlw	1
  2004  007076  6E33               	movwf	(tocar_nota@duracion+1)^0,c
  2005  007078  0E2C               	movlw	44
  2006  00707A  6E32               	movwf	tocar_nota@duracion^0,c
  2007  00707C  0E0E               	movlw	14
  2008  00707E  6E34               	movwf	tocar_nota@tfrec^0,c
  2009  007080  0E2D               	movlw	45
  2010  007082  6E35               	movwf	(tocar_nota@tfrec+1)^0,c
  2011  007084  0E42               	movlw	66
  2012  007086  6E36               	movwf	(tocar_nota@tfrec+2)^0,c
  2013  007088  0E40               	movlw	64
  2014  00708A  6E37               	movwf	(tocar_nota@tfrec+3)^0,c
  2015  00708C  EC94  F02F         	call	_tocar_nota	;wreg free
  2016                           
  2017                           ;../Practica5.X/main.c: 158:    tocar_nota(300,2.551);
  2018  007090  0E01               	movlw	1
  2019  007092  6E33               	movwf	(tocar_nota@duracion+1)^0,c
  2020  007094  0E2C               	movlw	44
  2021  007096  6E32               	movwf	tocar_nota@duracion^0,c
  2022  007098  0E96               	movlw	150
  2023  00709A  6E34               	movwf	tocar_nota@tfrec^0,c
  2024  00709C  0E43               	movlw	67
  2025  00709E  6E35               	movwf	(tocar_nota@tfrec+1)^0,c
  2026  0070A0  0E23               	movlw	35
  2027  0070A2  6E36               	movwf	(tocar_nota@tfrec+2)^0,c
  2028  0070A4  0E40               	movlw	64
  2029  0070A6  6E37               	movwf	(tocar_nota@tfrec+3)^0,c
  2030  0070A8  EC94  F02F         	call	_tocar_nota	;wreg free
  2031                           
  2032                           ;../Practica5.X/main.c: 160:    tocar_nota(300,2.025);
  2033  0070AC  0E01               	movlw	1
  2034  0070AE  6E33               	movwf	(tocar_nota@duracion+1)^0,c
  2035  0070B0  0E2C               	movlw	44
  2036  0070B2  6E32               	movwf	tocar_nota@duracion^0,c
  2037  0070B4  0E9A               	movlw	154
  2038  0070B6  6E34               	movwf	tocar_nota@tfrec^0,c
  2039  0070B8  0E99               	movlw	153
  2040  0070BA  6E35               	movwf	(tocar_nota@tfrec+1)^0,c
  2041  0070BC  0E01               	movlw	1
  2042  0070BE  6E36               	movwf	(tocar_nota@tfrec+2)^0,c
  2043  0070C0  0E40               	movlw	64
  2044  0070C2  6E37               	movwf	(tocar_nota@tfrec+3)^0,c
  2045  0070C4  EC94  F02F         	call	_tocar_nota	;wreg free
  2046                           
  2047                           ;../Practica5.X/main.c: 162:    tocar_nota(300,2.145);
  2048  0070C8  0E01               	movlw	1
  2049  0070CA  6E33               	movwf	(tocar_nota@duracion+1)^0,c
  2050  0070CC  0E2C               	movlw	44
  2051  0070CE  6E32               	movwf	tocar_nota@duracion^0,c
  2052  0070D0  0EAE               	movlw	174
  2053  0070D2  6E34               	movwf	tocar_nota@tfrec^0,c
  2054  0070D4  0E47               	movlw	71
  2055  0070D6  6E35               	movwf	(tocar_nota@tfrec+1)^0,c
  2056  0070D8  0E09               	movlw	9
  2057  0070DA  6E36               	movwf	(tocar_nota@tfrec+2)^0,c
  2058  0070DC  0E40               	movlw	64
  2059  0070DE  6E37               	movwf	(tocar_nota@tfrec+3)^0,c
  2060  0070E0  EC94  F02F         	call	_tocar_nota	;wreg free
  2061                           
  2062                           ;../Practica5.X/main.c: 164:    tocar_nota(300,2.273);
  2063  0070E4  0E01               	movlw	1
  2064  0070E6  6E33               	movwf	(tocar_nota@duracion+1)^0,c
  2065  0070E8  0E2C               	movlw	44
  2066  0070EA  6E32               	movwf	tocar_nota@duracion^0,c
  2067  0070EC  0ED5               	movlw	213
  2068  0070EE  6E34               	movwf	tocar_nota@tfrec^0,c
  2069  0070F0  0E78               	movlw	120
  2070  0070F2  6E35               	movwf	(tocar_nota@tfrec+1)^0,c
  2071  0070F4  0E11               	movlw	17
  2072  0070F6  6E36               	movwf	(tocar_nota@tfrec+2)^0,c
  2073  0070F8  0E40               	movlw	64
  2074  0070FA  6E37               	movwf	(tocar_nota@tfrec+3)^0,c
  2075  0070FC  EC94  F02F         	call	_tocar_nota	;wreg free
  2076                           
  2077                           ;../Practica5.X/main.c: 166:    tocar_nota(300,2.551);
  2078  007100  0E01               	movlw	1
  2079  007102  6E33               	movwf	(tocar_nota@duracion+1)^0,c
  2080  007104  0E2C               	movlw	44
  2081  007106  6E32               	movwf	tocar_nota@duracion^0,c
  2082  007108  0E96               	movlw	150
  2083  00710A  6E34               	movwf	tocar_nota@tfrec^0,c
  2084  00710C  0E43               	movlw	67
  2085  00710E  6E35               	movwf	(tocar_nota@tfrec+1)^0,c
  2086  007110  0E23               	movlw	35
  2087  007112  6E36               	movwf	(tocar_nota@tfrec+2)^0,c
  2088  007114  0E40               	movlw	64
  2089  007116  6E37               	movwf	(tocar_nota@tfrec+3)^0,c
  2090  007118  EC94  F02F         	call	_tocar_nota	;wreg free
  2091                           
  2092                           ;../Practica5.X/main.c: 169:    tocar_nota(300,1.51);
  2093  00711C  0E01               	movlw	1
  2094  00711E  6E33               	movwf	(tocar_nota@duracion+1)^0,c
  2095  007120  0E2C               	movlw	44
  2096  007122  6E32               	movwf	tocar_nota@duracion^0,c
  2097  007124  0EAE               	movlw	174
  2098  007126  6E34               	movwf	tocar_nota@tfrec^0,c
  2099  007128  0E47               	movlw	71
  2100  00712A  6E35               	movwf	(tocar_nota@tfrec+1)^0,c
  2101  00712C  0EC1               	movlw	193
  2102  00712E  6E36               	movwf	(tocar_nota@tfrec+2)^0,c
  2103  007130  0E3F               	movlw	63
  2104  007132  6E37               	movwf	(tocar_nota@tfrec+3)^0,c
  2105  007134  EC94  F02F         	call	_tocar_nota	;wreg free
  2106                           
  2107                           ;../Practica5.X/main.c: 173:    tocar_nota(300,1.27);
  2108  007138  0E01               	movlw	1
  2109  00713A  6E33               	movwf	(tocar_nota@duracion+1)^0,c
  2110  00713C  0E2C               	movlw	44
  2111  00713E  6E32               	movwf	tocar_nota@duracion^0,c
  2112  007140  0E5C               	movlw	92
  2113  007142  6E34               	movwf	tocar_nota@tfrec^0,c
  2114  007144  0E8F               	movlw	143
  2115  007146  6E35               	movwf	(tocar_nota@tfrec+1)^0,c
  2116  007148  0EA2               	movlw	162
  2117  00714A  6E36               	movwf	(tocar_nota@tfrec+2)^0,c
  2118  00714C  0E3F               	movlw	63
  2119  00714E  6E37               	movwf	(tocar_nota@tfrec+3)^0,c
  2120  007150  EC94  F02F         	call	_tocar_nota	;wreg free
  2121                           
  2122                           ;../Practica5.X/main.c: 174:    tocar_nota(300,1.13);
  2123  007154  0E01               	movlw	1
  2124  007156  6E33               	movwf	(tocar_nota@duracion+1)^0,c
  2125  007158  0E2C               	movlw	44
  2126  00715A  6E32               	movwf	tocar_nota@duracion^0,c
  2127  00715C  0ED7               	movlw	215
  2128  00715E  6E34               	movwf	tocar_nota@tfrec^0,c
  2129  007160  0EA3               	movlw	163
  2130  007162  6E35               	movwf	(tocar_nota@tfrec+1)^0,c
  2131  007164  0E90               	movlw	144
  2132  007166  6E36               	movwf	(tocar_nota@tfrec+2)^0,c
  2133  007168  0E3F               	movlw	63
  2134  00716A  6E37               	movwf	(tocar_nota@tfrec+3)^0,c
  2135  00716C  EC94  F02F         	call	_tocar_nota	;wreg free
  2136                           
  2137                           ;../Practica5.X/main.c: 176:       tocar_nota(150,1.43);
  2138  007170  0E00               	movlw	0
  2139  007172  6E33               	movwf	(tocar_nota@duracion+1)^0,c
  2140  007174  0E96               	movlw	150
  2141  007176  6E32               	movwf	tocar_nota@duracion^0,c
  2142  007178  0E3D               	movlw	61
  2143  00717A  6E34               	movwf	tocar_nota@tfrec^0,c
  2144  00717C  0E0A               	movlw	10
  2145  00717E  6E35               	movwf	(tocar_nota@tfrec+1)^0,c
  2146  007180  0EB7               	movlw	183
  2147  007182  6E36               	movwf	(tocar_nota@tfrec+2)^0,c
  2148  007184  0E3F               	movlw	63
  2149  007186  6E37               	movwf	(tocar_nota@tfrec+3)^0,c
  2150  007188  EC94  F02F         	call	_tocar_nota	;wreg free
  2151                           
  2152                           ;../Practica5.X/main.c: 177:    tocar_nota(150,1.27);
  2153  00718C  0E00               	movlw	0
  2154  00718E  6E33               	movwf	(tocar_nota@duracion+1)^0,c
  2155  007190  0E96               	movlw	150
  2156  007192  6E32               	movwf	tocar_nota@duracion^0,c
  2157  007194  0E5C               	movlw	92
  2158  007196  6E34               	movwf	tocar_nota@tfrec^0,c
  2159  007198  0E8F               	movlw	143
  2160  00719A  6E35               	movwf	(tocar_nota@tfrec+1)^0,c
  2161  00719C  0EA2               	movlw	162
  2162  00719E  6E36               	movwf	(tocar_nota@tfrec+2)^0,c
  2163  0071A0  0E3F               	movlw	63
  2164  0071A2  6E37               	movwf	(tocar_nota@tfrec+3)^0,c
  2165  0071A4  EC94  F02F         	call	_tocar_nota	;wreg free
  2166                           
  2167                           ;../Practica5.X/main.c: 179:       tocar_nota(300,1.51);
  2168  0071A8  0E01               	movlw	1
  2169  0071AA  6E33               	movwf	(tocar_nota@duracion+1)^0,c
  2170  0071AC  0E2C               	movlw	44
  2171  0071AE  6E32               	movwf	tocar_nota@duracion^0,c
  2172  0071B0  0EAE               	movlw	174
  2173  0071B2  6E34               	movwf	tocar_nota@tfrec^0,c
  2174  0071B4  0E47               	movlw	71
  2175  0071B6  6E35               	movwf	(tocar_nota@tfrec+1)^0,c
  2176  0071B8  0EC1               	movlw	193
  2177  0071BA  6E36               	movwf	(tocar_nota@tfrec+2)^0,c
  2178  0071BC  0E3F               	movlw	63
  2179  0071BE  6E37               	movwf	(tocar_nota@tfrec+3)^0,c
  2180  0071C0  EC94  F02F         	call	_tocar_nota	;wreg free
  2181                           
  2182                           ;../Practica5.X/main.c: 182:    tocar_nota(150,1.91);
  2183  0071C4  0E00               	movlw	0
  2184  0071C6  6E33               	movwf	(tocar_nota@duracion+1)^0,c
  2185  0071C8  0E96               	movlw	150
  2186  0071CA  6E32               	movwf	tocar_nota@duracion^0,c
  2187  0071CC  0EE1               	movlw	225
  2188  0071CE  6E34               	movwf	tocar_nota@tfrec^0,c
  2189  0071D0  0E7A               	movlw	122
  2190  0071D2  6E35               	movwf	(tocar_nota@tfrec+1)^0,c
  2191  0071D4  0EF4               	movlw	244
  2192  0071D6  6E36               	movwf	(tocar_nota@tfrec+2)^0,c
  2193  0071D8  0E3F               	movlw	63
  2194  0071DA  6E37               	movwf	(tocar_nota@tfrec+3)^0,c
  2195  0071DC  EC94  F02F         	call	_tocar_nota	;wreg free
  2196                           
  2197                           ;../Practica5.X/main.c: 184:    tocar_nota(150,1.70);
  2198  0071E0  0E00               	movlw	0
  2199  0071E2  6E33               	movwf	(tocar_nota@duracion+1)^0,c
  2200  0071E4  0E96               	movlw	150
  2201  0071E6  6E32               	movwf	tocar_nota@duracion^0,c
  2202  0071E8  0E9A               	movlw	154
  2203  0071EA  6E34               	movwf	tocar_nota@tfrec^0,c
  2204  0071EC  0E99               	movlw	153
  2205  0071EE  6E35               	movwf	(tocar_nota@tfrec+1)^0,c
  2206  0071F0  0ED9               	movlw	217
  2207  0071F2  6E36               	movwf	(tocar_nota@tfrec+2)^0,c
  2208  0071F4  0E3F               	movlw	63
  2209  0071F6  6E37               	movwf	(tocar_nota@tfrec+3)^0,c
  2210  0071F8  EC94  F02F         	call	_tocar_nota	;wreg free
  2211                           
  2212                           ;../Practica5.X/main.c: 186:    tocar_nota(300,2.551);
  2213  0071FC  0E01               	movlw	1
  2214  0071FE  6E33               	movwf	(tocar_nota@duracion+1)^0,c
  2215  007200  0E2C               	movlw	44
  2216  007202  6E32               	movwf	tocar_nota@duracion^0,c
  2217  007204  0E96               	movlw	150
  2218  007206  6E34               	movwf	tocar_nota@tfrec^0,c
  2219  007208  0E43               	movlw	67
  2220  00720A  6E35               	movwf	(tocar_nota@tfrec+1)^0,c
  2221  00720C  0E23               	movlw	35
  2222  00720E  6E36               	movwf	(tocar_nota@tfrec+2)^0,c
  2223  007210  0E40               	movlw	64
  2224  007212  6E37               	movwf	(tocar_nota@tfrec+3)^0,c
  2225  007214  EC94  F02F         	call	_tocar_nota	;wreg free
  2226                           
  2227                           ;../Practica5.X/main.c: 190:    tocar_nota(375,3.82);
  2228  007218  0E01               	movlw	1
  2229  00721A  6E33               	movwf	(tocar_nota@duracion+1)^0,c
  2230  00721C  0E77               	movlw	119
  2231  00721E  6E32               	movwf	tocar_nota@duracion^0,c
  2232  007220  0EE1               	movlw	225
  2233  007222  6E34               	movwf	tocar_nota@tfrec^0,c
  2234  007224  0E7A               	movlw	122
  2235  007226  6E35               	movwf	(tocar_nota@tfrec+1)^0,c
  2236  007228  0E74               	movlw	116
  2237  00722A  6E36               	movwf	(tocar_nota@tfrec+2)^0,c
  2238  00722C  0E40               	movlw	64
  2239  00722E  6E37               	movwf	(tocar_nota@tfrec+3)^0,c
  2240  007230  EC94  F02F         	call	_tocar_nota	;wreg free
  2241                           
  2242                           ;../Practica5.X/main.c: 192:    tocar_nota(125,3.034);
  2243  007234  0E00               	movlw	0
  2244  007236  6E33               	movwf	(tocar_nota@duracion+1)^0,c
  2245  007238  0E7D               	movlw	125
  2246  00723A  6E32               	movwf	tocar_nota@duracion^0,c
  2247  00723C  0E0E               	movlw	14
  2248  00723E  6E34               	movwf	tocar_nota@tfrec^0,c
  2249  007240  0E2D               	movlw	45
  2250  007242  6E35               	movwf	(tocar_nota@tfrec+1)^0,c
  2251  007244  0E42               	movlw	66
  2252  007246  6E36               	movwf	(tocar_nota@tfrec+2)^0,c
  2253  007248  0E40               	movlw	64
  2254  00724A  6E37               	movwf	(tocar_nota@tfrec+3)^0,c
  2255  00724C  EC94  F02F         	call	_tocar_nota	;wreg free
  2256                           
  2257                           ;../Practica5.X/main.c: 193:    tocar_nota(500,2.551);
  2258  007250  0E01               	movlw	1
  2259  007252  6E33               	movwf	(tocar_nota@duracion+1)^0,c
  2260  007254  0EF4               	movlw	244
  2261  007256  6E32               	movwf	tocar_nota@duracion^0,c
  2262  007258  0E96               	movlw	150
  2263  00725A  6E34               	movwf	tocar_nota@tfrec^0,c
  2264  00725C  0E43               	movlw	67
  2265  00725E  6E35               	movwf	(tocar_nota@tfrec+1)^0,c
  2266  007260  0E23               	movlw	35
  2267  007262  6E36               	movwf	(tocar_nota@tfrec+2)^0,c
  2268  007264  0E40               	movlw	64
  2269  007266  6E37               	movwf	(tocar_nota@tfrec+3)^0,c
  2270  007268  EC94  F02F         	call	_tocar_nota	;wreg free
  2271                           
  2272                           ;../Practica5.X/main.c: 195:    tocar_nota(375,3.82);
  2273  00726C  0E01               	movlw	1
  2274  00726E  6E33               	movwf	(tocar_nota@duracion+1)^0,c
  2275  007270  0E77               	movlw	119
  2276  007272  6E32               	movwf	tocar_nota@duracion^0,c
  2277  007274  0EE1               	movlw	225
  2278  007276  6E34               	movwf	tocar_nota@tfrec^0,c
  2279  007278  0E7A               	movlw	122
  2280  00727A  6E35               	movwf	(tocar_nota@tfrec+1)^0,c
  2281  00727C  0E74               	movlw	116
  2282  00727E  6E36               	movwf	(tocar_nota@tfrec+2)^0,c
  2283  007280  0E40               	movlw	64
  2284  007282  6E37               	movwf	(tocar_nota@tfrec+3)^0,c
  2285  007284  EC94  F02F         	call	_tocar_nota	;wreg free
  2286                           
  2287                           ;../Practica5.X/main.c: 197:    tocar_nota(125,2.551);
  2288  007288  0E00               	movlw	0
  2289  00728A  6E33               	movwf	(tocar_nota@duracion+1)^0,c
  2290  00728C  0E7D               	movlw	125
  2291  00728E  6E32               	movwf	tocar_nota@duracion^0,c
  2292  007290  0E96               	movlw	150
  2293  007292  6E34               	movwf	tocar_nota@tfrec^0,c
  2294  007294  0E43               	movlw	67
  2295  007296  6E35               	movwf	(tocar_nota@tfrec+1)^0,c
  2296  007298  0E23               	movlw	35
  2297  00729A  6E36               	movwf	(tocar_nota@tfrec+2)^0,c
  2298  00729C  0E40               	movlw	64
  2299  00729E  6E37               	movwf	(tocar_nota@tfrec+3)^0,c
  2300  0072A0  EC94  F02F         	call	_tocar_nota	;wreg free
  2301                           
  2302                           ;../Practica5.X/main.c: 199:    tocar_nota(1000,2.863);
  2303  0072A4  0E03               	movlw	3
  2304  0072A6  6E33               	movwf	(tocar_nota@duracion+1)^0,c
  2305  0072A8  0EE8               	movlw	232
  2306  0072AA  6E32               	movwf	tocar_nota@duracion^0,c
  2307  0072AC  0E64               	movlw	100
  2308  0072AE  6E34               	movwf	tocar_nota@tfrec^0,c
  2309  0072B0  0E3B               	movlw	59
  2310  0072B2  6E35               	movwf	(tocar_nota@tfrec+1)^0,c
  2311  0072B4  0E37               	movlw	55
  2312  0072B6  6E36               	movwf	(tocar_nota@tfrec+2)^0,c
  2313  0072B8  0E40               	movlw	64
  2314  0072BA  6E37               	movwf	(tocar_nota@tfrec+3)^0,c
  2315  0072BC  EC94  F02F         	call	_tocar_nota	;wreg free
  2316                           
  2317                           ;../Practica5.X/main.c: 201:    tocar_nota(500,2.273);
  2318  0072C0  0E01               	movlw	1
  2319  0072C2  6E33               	movwf	(tocar_nota@duracion+1)^0,c
  2320  0072C4  0EF4               	movlw	244
  2321  0072C6  6E32               	movwf	tocar_nota@duracion^0,c
  2322  0072C8  0ED5               	movlw	213
  2323  0072CA  6E34               	movwf	tocar_nota@tfrec^0,c
  2324  0072CC  0E78               	movlw	120
  2325  0072CE  6E35               	movwf	(tocar_nota@tfrec+1)^0,c
  2326  0072D0  0E11               	movlw	17
  2327  0072D2  6E36               	movwf	(tocar_nota@tfrec+2)^0,c
  2328  0072D4  0E40               	movlw	64
  2329  0072D6  6E37               	movwf	(tocar_nota@tfrec+3)^0,c
  2330  0072D8  EC94  F02F         	call	_tocar_nota	;wreg free
  2331                           
  2332                           ;../Practica5.X/main.c: 203:    tocar_nota(500,2.025);
  2333  0072DC  0E01               	movlw	1
  2334  0072DE  6E33               	movwf	(tocar_nota@duracion+1)^0,c
  2335  0072E0  0EF4               	movlw	244
  2336  0072E2  6E32               	movwf	tocar_nota@duracion^0,c
  2337  0072E4  0E9A               	movlw	154
  2338  0072E6  6E34               	movwf	tocar_nota@tfrec^0,c
  2339  0072E8  0E99               	movlw	153
  2340  0072EA  6E35               	movwf	(tocar_nota@tfrec+1)^0,c
  2341  0072EC  0E01               	movlw	1
  2342  0072EE  6E36               	movwf	(tocar_nota@tfrec+2)^0,c
  2343  0072F0  0E40               	movlw	64
  2344  0072F2  6E37               	movwf	(tocar_nota@tfrec+3)^0,c
  2345  0072F4  EC94  F02F         	call	_tocar_nota	;wreg free
  2346                           
  2347                           ;../Practica5.X/main.c: 205:    tocar_nota(500,2.145);
  2348  0072F8  0E01               	movlw	1
  2349  0072FA  6E33               	movwf	(tocar_nota@duracion+1)^0,c
  2350  0072FC  0EF4               	movlw	244
  2351  0072FE  6E32               	movwf	tocar_nota@duracion^0,c
  2352  007300  0EAE               	movlw	174
  2353  007302  6E34               	movwf	tocar_nota@tfrec^0,c
  2354  007304  0E47               	movlw	71
  2355  007306  6E35               	movwf	(tocar_nota@tfrec+1)^0,c
  2356  007308  0E09               	movlw	9
  2357  00730A  6E36               	movwf	(tocar_nota@tfrec+2)^0,c
  2358  00730C  0E40               	movlw	64
  2359  00730E  6E37               	movwf	(tocar_nota@tfrec+3)^0,c
  2360  007310  EC94  F02F         	call	_tocar_nota	;wreg free
  2361                           
  2362                           ;../Practica5.X/main.c: 207:    tocar_nota(375,2.273);
  2363  007314  0E01               	movlw	1
  2364  007316  6E33               	movwf	(tocar_nota@duracion+1)^0,c
  2365  007318  0E77               	movlw	119
  2366  00731A  6E32               	movwf	tocar_nota@duracion^0,c
  2367  00731C  0ED5               	movlw	213
  2368  00731E  6E34               	movwf	tocar_nota@tfrec^0,c
  2369  007320  0E78               	movlw	120
  2370  007322  6E35               	movwf	(tocar_nota@tfrec+1)^0,c
  2371  007324  0E11               	movlw	17
  2372  007326  6E36               	movwf	(tocar_nota@tfrec+2)^0,c
  2373  007328  0E40               	movlw	64
  2374  00732A  6E37               	movwf	(tocar_nota@tfrec+3)^0,c
  2375  00732C  EC94  F02F         	call	_tocar_nota	;wreg free
  2376                           
  2377                           ;../Practica5.X/main.c: 209:    tocar_nota(125,2.551);
  2378  007330  0E00               	movlw	0
  2379  007332  6E33               	movwf	(tocar_nota@duracion+1)^0,c
  2380  007334  0E7D               	movlw	125
  2381  007336  6E32               	movwf	tocar_nota@duracion^0,c
  2382  007338  0E96               	movlw	150
  2383  00733A  6E34               	movwf	tocar_nota@tfrec^0,c
  2384  00733C  0E43               	movlw	67
  2385  00733E  6E35               	movwf	(tocar_nota@tfrec+1)^0,c
  2386  007340  0E23               	movlw	35
  2387  007342  6E36               	movwf	(tocar_nota@tfrec+2)^0,c
  2388  007344  0E40               	movlw	64
  2389  007346  6E37               	movwf	(tocar_nota@tfrec+3)^0,c
  2390  007348  EC94  F02F         	call	_tocar_nota	;wreg free
  2391                           
  2392                           ;../Practica5.X/main.c: 211:    tocar_nota(500,3.034);
  2393  00734C  0E01               	movlw	1
  2394  00734E  6E33               	movwf	(tocar_nota@duracion+1)^0,c
  2395  007350  0EF4               	movlw	244
  2396  007352  6E32               	movwf	tocar_nota@duracion^0,c
  2397  007354  0E0E               	movlw	14
  2398  007356  6E34               	movwf	tocar_nota@tfrec^0,c
  2399  007358  0E2D               	movlw	45
  2400  00735A  6E35               	movwf	(tocar_nota@tfrec+1)^0,c
  2401  00735C  0E42               	movlw	66
  2402  00735E  6E36               	movwf	(tocar_nota@tfrec+2)^0,c
  2403  007360  0E40               	movlw	64
  2404  007362  6E37               	movwf	(tocar_nota@tfrec+3)^0,c
  2405  007364  EC94  F02F         	call	_tocar_nota	;wreg free
  2406                           
  2407                           ;../Practica5.X/main.c: 213:     tocar_nota(375,2.551);
  2408  007368  0E01               	movlw	1
  2409  00736A  6E33               	movwf	(tocar_nota@duracion+1)^0,c
  2410  00736C  0E77               	movlw	119
  2411  00736E  6E32               	movwf	tocar_nota@duracion^0,c
  2412  007370  0E96               	movlw	150
  2413  007372  6E34               	movwf	tocar_nota@tfrec^0,c
  2414  007374  0E43               	movlw	67
  2415  007376  6E35               	movwf	(tocar_nota@tfrec+1)^0,c
  2416  007378  0E23               	movlw	35
  2417  00737A  6E36               	movwf	(tocar_nota@tfrec+2)^0,c
  2418  00737C  0E40               	movlw	64
  2419  00737E  6E37               	movwf	(tocar_nota@tfrec+3)^0,c
  2420  007380  EC94  F02F         	call	_tocar_nota	;wreg free
  2421                           
  2422                           ;../Practica5.X/main.c: 215:    tocar_nota(125,2.551);
  2423  007384  0E00               	movlw	0
  2424  007386  6E33               	movwf	(tocar_nota@duracion+1)^0,c
  2425  007388  0E7D               	movlw	125
  2426  00738A  6E32               	movwf	tocar_nota@duracion^0,c
  2427  00738C  0E96               	movlw	150
  2428  00738E  6E34               	movwf	tocar_nota@tfrec^0,c
  2429  007390  0E43               	movlw	67
  2430  007392  6E35               	movwf	(tocar_nota@tfrec+1)^0,c
  2431  007394  0E23               	movlw	35
  2432  007396  6E36               	movwf	(tocar_nota@tfrec+2)^0,c
  2433  007398  0E40               	movlw	64
  2434  00739A  6E37               	movwf	(tocar_nota@tfrec+3)^0,c
  2435  00739C  EC94  F02F         	call	_tocar_nota	;wreg free
  2436                           
  2437                           ;../Practica5.X/main.c: 217:    tocar_nota(1000,3.034);
  2438  0073A0  0E03               	movlw	3
  2439  0073A2  6E33               	movwf	(tocar_nota@duracion+1)^0,c
  2440  0073A4  0EE8               	movlw	232
  2441  0073A6  6E32               	movwf	tocar_nota@duracion^0,c
  2442  0073A8  0E0E               	movlw	14
  2443  0073AA  6E34               	movwf	tocar_nota@tfrec^0,c
  2444  0073AC  0E2D               	movlw	45
  2445  0073AE  6E35               	movwf	(tocar_nota@tfrec+1)^0,c
  2446  0073B0  0E42               	movlw	66
  2447  0073B2  6E36               	movwf	(tocar_nota@tfrec+2)^0,c
  2448  0073B4  0E40               	movlw	64
  2449  0073B6  6E37               	movwf	(tocar_nota@tfrec+3)^0,c
  2450  0073B8  EC94  F02F         	call	_tocar_nota	;wreg free
  2451                           
  2452                           ;../Practica5.X/main.c: 218:    tocar_nota(500,2.551);
  2453  0073BC  0E01               	movlw	1
  2454  0073BE  6E33               	movwf	(tocar_nota@duracion+1)^0,c
  2455  0073C0  0EF4               	movlw	244
  2456  0073C2  6E32               	movwf	tocar_nota@duracion^0,c
  2457  0073C4  0E96               	movlw	150
  2458  0073C6  6E34               	movwf	tocar_nota@tfrec^0,c
  2459  0073C8  0E43               	movlw	67
  2460  0073CA  6E35               	movwf	(tocar_nota@tfrec+1)^0,c
  2461  0073CC  0E23               	movlw	35
  2462  0073CE  6E36               	movwf	(tocar_nota@tfrec+2)^0,c
  2463  0073D0  0E40               	movlw	64
  2464  0073D2  6E37               	movwf	(tocar_nota@tfrec+3)^0,c
  2465  0073D4  EC94  F02F         	call	_tocar_nota	;wreg free
  2466                           
  2467                           ;../Practica5.X/main.c: 220:    tocar_nota(375,3.034);
  2468  0073D8  0E01               	movlw	1
  2469  0073DA  6E33               	movwf	(tocar_nota@duracion+1)^0,c
  2470  0073DC  0E77               	movlw	119
  2471  0073DE  6E32               	movwf	tocar_nota@duracion^0,c
  2472  0073E0  0E0E               	movlw	14
  2473  0073E2  6E34               	movwf	tocar_nota@tfrec^0,c
  2474  0073E4  0E2D               	movlw	45
  2475  0073E6  6E35               	movwf	(tocar_nota@tfrec+1)^0,c
  2476  0073E8  0E42               	movlw	66
  2477  0073EA  6E36               	movwf	(tocar_nota@tfrec+2)^0,c
  2478  0073EC  0E40               	movlw	64
  2479  0073EE  6E37               	movwf	(tocar_nota@tfrec+3)^0,c
  2480  0073F0  EC94  F02F         	call	_tocar_nota	;wreg free
  2481                           
  2482                           ;../Practica5.X/main.c: 222:    tocar_nota(125,3.82);
  2483  0073F4  0E00               	movlw	0
  2484  0073F6  6E33               	movwf	(tocar_nota@duracion+1)^0,c
  2485  0073F8  0E7D               	movlw	125
  2486  0073FA  6E32               	movwf	tocar_nota@duracion^0,c
  2487  0073FC  0EE1               	movlw	225
  2488  0073FE  6E34               	movwf	tocar_nota@tfrec^0,c
  2489  007400  0E7A               	movlw	122
  2490  007402  6E35               	movwf	(tocar_nota@tfrec+1)^0,c
  2491  007404  0E74               	movlw	116
  2492  007406  6E36               	movwf	(tocar_nota@tfrec+2)^0,c
  2493  007408  0E40               	movlw	64
  2494  00740A  6E37               	movwf	(tocar_nota@tfrec+3)^0,c
  2495  00740C  EC94  F02F         	call	_tocar_nota	;wreg free
  2496                           
  2497                           ;../Practica5.X/main.c: 224:    tocar_nota(500,3.405);
  2498  007410  0E01               	movlw	1
  2499  007412  6E33               	movwf	(tocar_nota@duracion+1)^0,c
  2500  007414  0EF4               	movlw	244
  2501  007416  6E32               	movwf	tocar_nota@duracion^0,c
  2502  007418  0E85               	movlw	133
  2503  00741A  6E34               	movwf	tocar_nota@tfrec^0,c
  2504  00741C  0EEB               	movlw	235
  2505  00741E  6E35               	movwf	(tocar_nota@tfrec+1)^0,c
  2506  007420  0E59               	movlw	89
  2507  007422  6E36               	movwf	(tocar_nota@tfrec+2)^0,c
  2508  007424  0E40               	movlw	64
  2509  007426  6E37               	movwf	(tocar_nota@tfrec+3)^0,c
  2510  007428  EC94  F02F         	call	_tocar_nota	;wreg free
  2511                           
  2512                           ;../Practica5.X/main.c: 225:    tocar_nota(375,2.025);
  2513  00742C  0E01               	movlw	1
  2514  00742E  6E33               	movwf	(tocar_nota@duracion+1)^0,c
  2515  007430  0E77               	movlw	119
  2516  007432  6E32               	movwf	tocar_nota@duracion^0,c
  2517  007434  0E9A               	movlw	154
  2518  007436  6E34               	movwf	tocar_nota@tfrec^0,c
  2519  007438  0E99               	movlw	153
  2520  00743A  6E35               	movwf	(tocar_nota@tfrec+1)^0,c
  2521  00743C  0E01               	movlw	1
  2522  00743E  6E36               	movwf	(tocar_nota@tfrec+2)^0,c
  2523  007440  0E40               	movlw	64
  2524  007442  6E37               	movwf	(tocar_nota@tfrec+3)^0,c
  2525  007444  EC94  F02F         	call	_tocar_nota	;wreg free
  2526                           
  2527                           ;../Practica5.X/main.c: 226:    tocar_nota(125,2.551);
  2528  007448  0E00               	movlw	0
  2529  00744A  6E33               	movwf	(tocar_nota@duracion+1)^0,c
  2530  00744C  0E7D               	movlw	125
  2531  00744E  6E32               	movwf	tocar_nota@duracion^0,c
  2532  007450  0E96               	movlw	150
  2533  007452  6E34               	movwf	tocar_nota@tfrec^0,c
  2534  007454  0E43               	movlw	67
  2535  007456  6E35               	movwf	(tocar_nota@tfrec+1)^0,c
  2536  007458  0E23               	movlw	35
  2537  00745A  6E36               	movwf	(tocar_nota@tfrec+2)^0,c
  2538  00745C  0E40               	movlw	64
  2539  00745E  6E37               	movwf	(tocar_nota@tfrec+3)^0,c
  2540  007460  EC94  F02F         	call	_tocar_nota	;wreg free
  2541                           
  2542                           ;../Practica5.X/main.c: 228:    tocar_nota(500,3.034);
  2543  007464  0E01               	movlw	1
  2544  007466  6E33               	movwf	(tocar_nota@duracion+1)^0,c
  2545  007468  0EF4               	movlw	244
  2546  00746A  6E32               	movwf	tocar_nota@duracion^0,c
  2547  00746C  0E0E               	movlw	14
  2548  00746E  6E34               	movwf	tocar_nota@tfrec^0,c
  2549  007470  0E2D               	movlw	45
  2550  007472  6E35               	movwf	(tocar_nota@tfrec+1)^0,c
  2551  007474  0E42               	movlw	66
  2552  007476  6E36               	movwf	(tocar_nota@tfrec+2)^0,c
  2553  007478  0E40               	movlw	64
  2554  00747A  6E37               	movwf	(tocar_nota@tfrec+3)^0,c
  2555  00747C  EC94  F02F         	call	_tocar_nota	;wreg free
  2556                           
  2557                           ;../Practica5.X/main.c: 230:    tocar_nota(375,2.551);
  2558  007480  0E01               	movlw	1
  2559  007482  6E33               	movwf	(tocar_nota@duracion+1)^0,c
  2560  007484  0E77               	movlw	119
  2561  007486  6E32               	movwf	tocar_nota@duracion^0,c
  2562  007488  0E96               	movlw	150
  2563  00748A  6E34               	movwf	tocar_nota@tfrec^0,c
  2564  00748C  0E43               	movlw	67
  2565  00748E  6E35               	movwf	(tocar_nota@tfrec+1)^0,c
  2566  007490  0E23               	movlw	35
  2567  007492  6E36               	movwf	(tocar_nota@tfrec+2)^0,c
  2568  007494  0E40               	movlw	64
  2569  007496  6E37               	movwf	(tocar_nota@tfrec+3)^0,c
  2570  007498  EC94  F02F         	call	_tocar_nota	;wreg free
  2571                           
  2572                           ;../Practica5.X/main.c: 232:    tocar_nota(125,2.551);
  2573  00749C  0E00               	movlw	0
  2574  00749E  6E33               	movwf	(tocar_nota@duracion+1)^0,c
  2575  0074A0  0E7D               	movlw	125
  2576  0074A2  6E32               	movwf	tocar_nota@duracion^0,c
  2577  0074A4  0E96               	movlw	150
  2578  0074A6  6E34               	movwf	tocar_nota@tfrec^0,c
  2579  0074A8  0E43               	movlw	67
  2580  0074AA  6E35               	movwf	(tocar_nota@tfrec+1)^0,c
  2581  0074AC  0E23               	movlw	35
  2582  0074AE  6E36               	movwf	(tocar_nota@tfrec+2)^0,c
  2583  0074B0  0E40               	movlw	64
  2584  0074B2  6E37               	movwf	(tocar_nota@tfrec+3)^0,c
  2585  0074B4  EC94  F02F         	call	_tocar_nota	;wreg free
  2586                           
  2587                           ;../Practica5.X/main.c: 234:    tocar_nota(1000,3.034);
  2588  0074B8  0E03               	movlw	3
  2589  0074BA  6E33               	movwf	(tocar_nota@duracion+1)^0,c
  2590  0074BC  0EE8               	movlw	232
  2591  0074BE  6E32               	movwf	tocar_nota@duracion^0,c
  2592  0074C0  0E0E               	movlw	14
  2593  0074C2  6E34               	movwf	tocar_nota@tfrec^0,c
  2594  0074C4  0E2D               	movlw	45
  2595  0074C6  6E35               	movwf	(tocar_nota@tfrec+1)^0,c
  2596  0074C8  0E42               	movlw	66
  2597  0074CA  6E36               	movwf	(tocar_nota@tfrec+2)^0,c
  2598  0074CC  0E40               	movlw	64
  2599  0074CE  6E37               	movwf	(tocar_nota@tfrec+3)^0,c
  2600  0074D0  EC94  F02F         	call	_tocar_nota	;wreg free
  2601                           
  2602                           ;../Practica5.X/main.c: 235:    tocar_nota(500,2.551);
  2603  0074D4  0E01               	movlw	1
  2604  0074D6  6E33               	movwf	(tocar_nota@duracion+1)^0,c
  2605  0074D8  0EF4               	movlw	244
  2606  0074DA  6E32               	movwf	tocar_nota@duracion^0,c
  2607  0074DC  0E96               	movlw	150
  2608  0074DE  6E34               	movwf	tocar_nota@tfrec^0,c
  2609  0074E0  0E43               	movlw	67
  2610  0074E2  6E35               	movwf	(tocar_nota@tfrec+1)^0,c
  2611  0074E4  0E23               	movlw	35
  2612  0074E6  6E36               	movwf	(tocar_nota@tfrec+2)^0,c
  2613  0074E8  0E40               	movlw	64
  2614  0074EA  6E37               	movwf	(tocar_nota@tfrec+3)^0,c
  2615  0074EC  EC94  F02F         	call	_tocar_nota	;wreg free
  2616                           
  2617                           ;../Practica5.X/main.c: 237:    tocar_nota(375,3.034);
  2618  0074F0  0E01               	movlw	1
  2619  0074F2  6E33               	movwf	(tocar_nota@duracion+1)^0,c
  2620  0074F4  0E77               	movlw	119
  2621  0074F6  6E32               	movwf	tocar_nota@duracion^0,c
  2622  0074F8  0E0E               	movlw	14
  2623  0074FA  6E34               	movwf	tocar_nota@tfrec^0,c
  2624  0074FC  0E2D               	movlw	45
  2625  0074FE  6E35               	movwf	(tocar_nota@tfrec+1)^0,c
  2626  007500  0E42               	movlw	66
  2627  007502  6E36               	movwf	(tocar_nota@tfrec+2)^0,c
  2628  007504  0E40               	movlw	64
  2629  007506  6E37               	movwf	(tocar_nota@tfrec+3)^0,c
  2630  007508  EC94  F02F         	call	_tocar_nota	;wreg free
  2631                           
  2632                           ;../Practica5.X/main.c: 239:    tocar_nota(125,3.82);
  2633  00750C  0E00               	movlw	0
  2634  00750E  6E33               	movwf	(tocar_nota@duracion+1)^0,c
  2635  007510  0E7D               	movlw	125
  2636  007512  6E32               	movwf	tocar_nota@duracion^0,c
  2637  007514  0EE1               	movlw	225
  2638  007516  6E34               	movwf	tocar_nota@tfrec^0,c
  2639  007518  0E7A               	movlw	122
  2640  00751A  6E35               	movwf	(tocar_nota@tfrec+1)^0,c
  2641  00751C  0E74               	movlw	116
  2642  00751E  6E36               	movwf	(tocar_nota@tfrec+2)^0,c
  2643  007520  0E40               	movlw	64
  2644  007522  6E37               	movwf	(tocar_nota@tfrec+3)^0,c
  2645  007524  EC94  F02F         	call	_tocar_nota	;wreg free
  2646                           
  2647                           ;../Practica5.X/main.c: 241:    tocar_nota(500,3.405);
  2648  007528  0E01               	movlw	1
  2649  00752A  6E33               	movwf	(tocar_nota@duracion+1)^0,c
  2650  00752C  0EF4               	movlw	244
  2651  00752E  6E32               	movwf	tocar_nota@duracion^0,c
  2652  007530  0E85               	movlw	133
  2653  007532  6E34               	movwf	tocar_nota@tfrec^0,c
  2654  007534  0EEB               	movlw	235
  2655  007536  6E35               	movwf	(tocar_nota@tfrec+1)^0,c
  2656  007538  0E59               	movlw	89
  2657  00753A  6E36               	movwf	(tocar_nota@tfrec+2)^0,c
  2658  00753C  0E40               	movlw	64
  2659  00753E  6E37               	movwf	(tocar_nota@tfrec+3)^0,c
  2660  007540  EC94  F02F         	call	_tocar_nota	;wreg free
  2661                           
  2662                           ;../Practica5.X/main.c: 242:    tocar_nota(375,2.025);
  2663  007544  0E01               	movlw	1
  2664  007546  6E33               	movwf	(tocar_nota@duracion+1)^0,c
  2665  007548  0E77               	movlw	119
  2666  00754A  6E32               	movwf	tocar_nota@duracion^0,c
  2667  00754C  0E9A               	movlw	154
  2668  00754E  6E34               	movwf	tocar_nota@tfrec^0,c
  2669  007550  0E99               	movlw	153
  2670  007552  6E35               	movwf	(tocar_nota@tfrec+1)^0,c
  2671  007554  0E01               	movlw	1
  2672  007556  6E36               	movwf	(tocar_nota@tfrec+2)^0,c
  2673  007558  0E40               	movlw	64
  2674  00755A  6E37               	movwf	(tocar_nota@tfrec+3)^0,c
  2675  00755C  EC94  F02F         	call	_tocar_nota	;wreg free
  2676                           
  2677                           ;../Practica5.X/main.c: 243:    tocar_nota(375,2.551);
  2678  007560  0E01               	movlw	1
  2679  007562  6E33               	movwf	(tocar_nota@duracion+1)^0,c
  2680  007564  0E77               	movlw	119
  2681  007566  6E32               	movwf	tocar_nota@duracion^0,c
  2682  007568  0E96               	movlw	150
  2683  00756A  6E34               	movwf	tocar_nota@tfrec^0,c
  2684  00756C  0E43               	movlw	67
  2685  00756E  6E35               	movwf	(tocar_nota@tfrec+1)^0,c
  2686  007570  0E23               	movlw	35
  2687  007572  6E36               	movwf	(tocar_nota@tfrec+2)^0,c
  2688  007574  0E40               	movlw	64
  2689  007576  6E37               	movwf	(tocar_nota@tfrec+3)^0,c
  2690  007578  EC94  F02F         	call	_tocar_nota	;wreg free
  2691                           
  2692                           ;../Practica5.X/main.c: 245:    tocar_nota(125,2.551);
  2693  00757C  0E00               	movlw	0
  2694  00757E  6E33               	movwf	(tocar_nota@duracion+1)^0,c
  2695  007580  0E7D               	movlw	125
  2696  007582  6E32               	movwf	tocar_nota@duracion^0,c
  2697  007584  0E96               	movlw	150
  2698  007586  6E34               	movwf	tocar_nota@tfrec^0,c
  2699  007588  0E43               	movlw	67
  2700  00758A  6E35               	movwf	(tocar_nota@tfrec+1)^0,c
  2701  00758C  0E23               	movlw	35
  2702  00758E  6E36               	movwf	(tocar_nota@tfrec+2)^0,c
  2703  007590  0E40               	movlw	64
  2704  007592  6E37               	movwf	(tocar_nota@tfrec+3)^0,c
  2705  007594  EC94  F02F         	call	_tocar_nota	;wreg free
  2706                           
  2707                           ;../Practica5.X/main.c: 247:    tocar_nota(1000,3.034);
  2708  007598  0E03               	movlw	3
  2709  00759A  6E33               	movwf	(tocar_nota@duracion+1)^0,c
  2710  00759C  0EE8               	movlw	232
  2711  00759E  6E32               	movwf	tocar_nota@duracion^0,c
  2712  0075A0  0E0E               	movlw	14
  2713  0075A2  6E34               	movwf	tocar_nota@tfrec^0,c
  2714  0075A4  0E2D               	movlw	45
  2715  0075A6  6E35               	movwf	(tocar_nota@tfrec+1)^0,c
  2716  0075A8  0E42               	movlw	66
  2717  0075AA  6E36               	movwf	(tocar_nota@tfrec+2)^0,c
  2718  0075AC  0E40               	movlw	64
  2719  0075AE  6E37               	movwf	(tocar_nota@tfrec+3)^0,c
  2720  0075B0  EC94  F02F         	call	_tocar_nota	;wreg free
  2721                           
  2722                           ;../Practica5.X/main.c: 248:    tocar_nota(500,2.551);
  2723  0075B4  0E01               	movlw	1
  2724  0075B6  6E33               	movwf	(tocar_nota@duracion+1)^0,c
  2725  0075B8  0EF4               	movlw	244
  2726  0075BA  6E32               	movwf	tocar_nota@duracion^0,c
  2727  0075BC  0E96               	movlw	150
  2728  0075BE  6E34               	movwf	tocar_nota@tfrec^0,c
  2729  0075C0  0E43               	movlw	67
  2730  0075C2  6E35               	movwf	(tocar_nota@tfrec+1)^0,c
  2731  0075C4  0E23               	movlw	35
  2732  0075C6  6E36               	movwf	(tocar_nota@tfrec+2)^0,c
  2733  0075C8  0E40               	movlw	64
  2734  0075CA  6E37               	movwf	(tocar_nota@tfrec+3)^0,c
  2735  0075CC  EC94  F02F         	call	_tocar_nota	;wreg free
  2736                           
  2737                           ;../Practica5.X/main.c: 250:    tocar_nota(375,3.034);
  2738  0075D0  0E01               	movlw	1
  2739  0075D2  6E33               	movwf	(tocar_nota@duracion+1)^0,c
  2740  0075D4  0E77               	movlw	119
  2741  0075D6  6E32               	movwf	tocar_nota@duracion^0,c
  2742  0075D8  0E0E               	movlw	14
  2743  0075DA  6E34               	movwf	tocar_nota@tfrec^0,c
  2744  0075DC  0E2D               	movlw	45
  2745  0075DE  6E35               	movwf	(tocar_nota@tfrec+1)^0,c
  2746  0075E0  0E42               	movlw	66
  2747  0075E2  6E36               	movwf	(tocar_nota@tfrec+2)^0,c
  2748  0075E4  0E40               	movlw	64
  2749  0075E6  6E37               	movwf	(tocar_nota@tfrec+3)^0,c
  2750  0075E8  EC94  F02F         	call	_tocar_nota	;wreg free
  2751                           
  2752                           ;../Practica5.X/main.c: 252:    tocar_nota(125,3.82);
  2753  0075EC  0E00               	movlw	0
  2754  0075EE  6E33               	movwf	(tocar_nota@duracion+1)^0,c
  2755  0075F0  0E7D               	movlw	125
  2756  0075F2  6E32               	movwf	tocar_nota@duracion^0,c
  2757  0075F4  0EE1               	movlw	225
  2758  0075F6  6E34               	movwf	tocar_nota@tfrec^0,c
  2759  0075F8  0E7A               	movlw	122
  2760  0075FA  6E35               	movwf	(tocar_nota@tfrec+1)^0,c
  2761  0075FC  0E74               	movlw	116
  2762  0075FE  6E36               	movwf	(tocar_nota@tfrec+2)^0,c
  2763  007600  0E40               	movlw	64
  2764  007602  6E37               	movwf	(tocar_nota@tfrec+3)^0,c
  2765  007604  EC94  F02F         	call	_tocar_nota	;wreg free
  2766                           
  2767                           ;../Practica5.X/main.c: 254:    tocar_nota(500,3.405);
  2768  007608  0E01               	movlw	1
  2769  00760A  6E33               	movwf	(tocar_nota@duracion+1)^0,c
  2770  00760C  0EF4               	movlw	244
  2771  00760E  6E32               	movwf	tocar_nota@duracion^0,c
  2772  007610  0E85               	movlw	133
  2773  007612  6E34               	movwf	tocar_nota@tfrec^0,c
  2774  007614  0EEB               	movlw	235
  2775  007616  6E35               	movwf	(tocar_nota@tfrec+1)^0,c
  2776  007618  0E59               	movlw	89
  2777  00761A  6E36               	movwf	(tocar_nota@tfrec+2)^0,c
  2778  00761C  0E40               	movlw	64
  2779  00761E  6E37               	movwf	(tocar_nota@tfrec+3)^0,c
  2780  007620  EC94  F02F         	call	_tocar_nota	;wreg free
  2781                           
  2782                           ;../Practica5.X/main.c: 255:    tocar_nota(375,2.025);
  2783  007624  0E01               	movlw	1
  2784  007626  6E33               	movwf	(tocar_nota@duracion+1)^0,c
  2785  007628  0E77               	movlw	119
  2786  00762A  6E32               	movwf	tocar_nota@duracion^0,c
  2787  00762C  0E9A               	movlw	154
  2788  00762E  6E34               	movwf	tocar_nota@tfrec^0,c
  2789  007630  0E99               	movlw	153
  2790  007632  6E35               	movwf	(tocar_nota@tfrec+1)^0,c
  2791  007634  0E01               	movlw	1
  2792  007636  6E36               	movwf	(tocar_nota@tfrec+2)^0,c
  2793  007638  0E40               	movlw	64
  2794  00763A  6E37               	movwf	(tocar_nota@tfrec+3)^0,c
  2795  00763C  EC94  F02F         	call	_tocar_nota	;wreg free
  2796                           
  2797                           ;../Practica5.X/main.c: 257:    silencio(1000,3.822);
  2798  007640  0E03               	movlw	3
  2799  007642  6E33               	movwf	(silencio@duracion+1)^0,c
  2800  007644  0EE8               	movlw	232
  2801  007646  6E32               	movwf	silencio@duracion^0,c
  2802  007648  0EA6               	movlw	166
  2803  00764A  6E34               	movwf	silencio@tfrec^0,c
  2804  00764C  0E9B               	movlw	155
  2805  00764E  6E35               	movwf	(silencio@tfrec+1)^0,c
  2806  007650  0E74               	movlw	116
  2807  007652  6E36               	movwf	(silencio@tfrec+2)^0,c
  2808  007654  0E40               	movlw	64
  2809  007656  6E37               	movwf	(silencio@tfrec+3)^0,c
  2810  007658  ECDC  F02E         	call	_silencio	;wreg free
  2811  00765C  0012               	return		;funcret
  2812  00765E                     __end_of_cancion2:
  2813                           	callstack 0
  2814                           
  2815 ;; *************** function _cancion1 *****************
  2816 ;; Defined at:
  2817 ;;		line 75 in file "../Practica5.X/main.c"
  2818 ;; Parameters:    Size  Location     Type
  2819 ;;		None
  2820 ;; Auto vars:     Size  Location     Type
  2821 ;;		None
  2822 ;; Return value:  Size  Location     Type
  2823 ;;                  1    wreg      void 
  2824 ;; Registers used:
  2825 ;;		wreg, status,2, status,0, cstack
  2826 ;; Tracked objects:
  2827 ;;		On entry : 0/0
  2828 ;;		On exit  : 0/0
  2829 ;;		Unchanged: 0/0
  2830 ;; Data sizes:     COMRAM   BANK0   BANK1   BANK2   BANK3   BANK4   BANK5   BANK6   BANK7
  2831 ;;      Params:         0       0       0       0       0       0       0       0       0
  2832 ;;      Locals:         0       0       0       0       0       0       0       0       0
  2833 ;;      Temps:          0       0       0       0       0       0       0       0       0
  2834 ;;      Totals:         0       0       0       0       0       0       0       0       0
  2835 ;;Total ram usage:        0 bytes
  2836 ;; Hardware stack levels used: 1
  2837 ;; Hardware stack levels required when called: 3
  2838 ;; This function calls:
  2839 ;;		_silencio
  2840 ;;		_tocar_nota
  2841 ;; This function is called by:
  2842 ;;		_main
  2843 ;; This function uses a non-reentrant model
  2844 ;;
  2845                           
  2846                           	psect	text4
  2847  006AA6                     __ptext4:
  2848                           	callstack 0
  2849  006AA6                     _cancion1:
  2850                           	callstack 27
  2851  006AA6                     
  2852                           ;../Practica5.X/main.c: 77:      tocar_nota(500,3.034);
  2853  006AA6  0E01               	movlw	1
  2854  006AA8  6E33               	movwf	(tocar_nota@duracion+1)^0,c
  2855  006AAA  0EF4               	movlw	244
  2856  006AAC  6E32               	movwf	tocar_nota@duracion^0,c
  2857  006AAE  0E0E               	movlw	14
  2858  006AB0  6E34               	movwf	tocar_nota@tfrec^0,c
  2859  006AB2  0E2D               	movlw	45
  2860  006AB4  6E35               	movwf	(tocar_nota@tfrec+1)^0,c
  2861  006AB6  0E42               	movlw	66
  2862  006AB8  6E36               	movwf	(tocar_nota@tfrec+2)^0,c
  2863  006ABA  0E40               	movlw	64
  2864  006ABC  6E37               	movwf	(tocar_nota@tfrec+3)^0,c
  2865  006ABE  EC94  F02F         	call	_tocar_nota	;wreg free
  2866                           
  2867                           ;../Practica5.X/main.c: 78:       tocar_nota(500,3.034);
  2868  006AC2  0E01               	movlw	1
  2869  006AC4  6E33               	movwf	(tocar_nota@duracion+1)^0,c
  2870  006AC6  0EF4               	movlw	244
  2871  006AC8  6E32               	movwf	tocar_nota@duracion^0,c
  2872  006ACA  0E0E               	movlw	14
  2873  006ACC  6E34               	movwf	tocar_nota@tfrec^0,c
  2874  006ACE  0E2D               	movlw	45
  2875  006AD0  6E35               	movwf	(tocar_nota@tfrec+1)^0,c
  2876  006AD2  0E42               	movlw	66
  2877  006AD4  6E36               	movwf	(tocar_nota@tfrec+2)^0,c
  2878  006AD6  0E40               	movlw	64
  2879  006AD8  6E37               	movwf	(tocar_nota@tfrec+3)^0,c
  2880  006ADA  EC94  F02F         	call	_tocar_nota	;wreg free
  2881                           
  2882                           ;../Practica5.X/main.c: 79:       tocar_nota(500,3.034);
  2883  006ADE  0E01               	movlw	1
  2884  006AE0  6E33               	movwf	(tocar_nota@duracion+1)^0,c
  2885  006AE2  0EF4               	movlw	244
  2886  006AE4  6E32               	movwf	tocar_nota@duracion^0,c
  2887  006AE6  0E0E               	movlw	14
  2888  006AE8  6E34               	movwf	tocar_nota@tfrec^0,c
  2889  006AEA  0E2D               	movlw	45
  2890  006AEC  6E35               	movwf	(tocar_nota@tfrec+1)^0,c
  2891  006AEE  0E42               	movlw	66
  2892  006AF0  6E36               	movwf	(tocar_nota@tfrec+2)^0,c
  2893  006AF2  0E40               	movlw	64
  2894  006AF4  6E37               	movwf	(tocar_nota@tfrec+3)^0,c
  2895  006AF6  EC94  F02F         	call	_tocar_nota	;wreg free
  2896                           
  2897                           ;../Practica5.X/main.c: 81:        tocar_nota(375,3.82);
  2898  006AFA  0E01               	movlw	1
  2899  006AFC  6E33               	movwf	(tocar_nota@duracion+1)^0,c
  2900  006AFE  0E77               	movlw	119
  2901  006B00  6E32               	movwf	tocar_nota@duracion^0,c
  2902  006B02  0EE1               	movlw	225
  2903  006B04  6E34               	movwf	tocar_nota@tfrec^0,c
  2904  006B06  0E7A               	movlw	122
  2905  006B08  6E35               	movwf	(tocar_nota@tfrec+1)^0,c
  2906  006B0A  0E74               	movlw	116
  2907  006B0C  6E36               	movwf	(tocar_nota@tfrec+2)^0,c
  2908  006B0E  0E40               	movlw	64
  2909  006B10  6E37               	movwf	(tocar_nota@tfrec+3)^0,c
  2910  006B12  EC94  F02F         	call	_tocar_nota	;wreg free
  2911                           
  2912                           ;../Practica5.X/main.c: 82:         tocar_nota(125,2.551);
  2913  006B16  0E00               	movlw	0
  2914  006B18  6E33               	movwf	(tocar_nota@duracion+1)^0,c
  2915  006B1A  0E7D               	movlw	125
  2916  006B1C  6E32               	movwf	tocar_nota@duracion^0,c
  2917  006B1E  0E96               	movlw	150
  2918  006B20  6E34               	movwf	tocar_nota@tfrec^0,c
  2919  006B22  0E43               	movlw	67
  2920  006B24  6E35               	movwf	(tocar_nota@tfrec+1)^0,c
  2921  006B26  0E23               	movlw	35
  2922  006B28  6E36               	movwf	(tocar_nota@tfrec+2)^0,c
  2923  006B2A  0E40               	movlw	64
  2924  006B2C  6E37               	movwf	(tocar_nota@tfrec+3)^0,c
  2925  006B2E  EC94  F02F         	call	_tocar_nota	;wreg free
  2926                           
  2927                           ;../Practica5.X/main.c: 84:         tocar_nota(500,3.034);
  2928  006B32  0E01               	movlw	1
  2929  006B34  6E33               	movwf	(tocar_nota@duracion+1)^0,c
  2930  006B36  0EF4               	movlw	244
  2931  006B38  6E32               	movwf	tocar_nota@duracion^0,c
  2932  006B3A  0E0E               	movlw	14
  2933  006B3C  6E34               	movwf	tocar_nota@tfrec^0,c
  2934  006B3E  0E2D               	movlw	45
  2935  006B40  6E35               	movwf	(tocar_nota@tfrec+1)^0,c
  2936  006B42  0E42               	movlw	66
  2937  006B44  6E36               	movwf	(tocar_nota@tfrec+2)^0,c
  2938  006B46  0E40               	movlw	64
  2939  006B48  6E37               	movwf	(tocar_nota@tfrec+3)^0,c
  2940  006B4A  EC94  F02F         	call	_tocar_nota	;wreg free
  2941                           
  2942                           ;../Practica5.X/main.c: 86:        tocar_nota(375,3.82);
  2943  006B4E  0E01               	movlw	1
  2944  006B50  6E33               	movwf	(tocar_nota@duracion+1)^0,c
  2945  006B52  0E77               	movlw	119
  2946  006B54  6E32               	movwf	tocar_nota@duracion^0,c
  2947  006B56  0EE1               	movlw	225
  2948  006B58  6E34               	movwf	tocar_nota@tfrec^0,c
  2949  006B5A  0E7A               	movlw	122
  2950  006B5C  6E35               	movwf	(tocar_nota@tfrec+1)^0,c
  2951  006B5E  0E74               	movlw	116
  2952  006B60  6E36               	movwf	(tocar_nota@tfrec+2)^0,c
  2953  006B62  0E40               	movlw	64
  2954  006B64  6E37               	movwf	(tocar_nota@tfrec+3)^0,c
  2955  006B66  EC94  F02F         	call	_tocar_nota	;wreg free
  2956                           
  2957                           ;../Practica5.X/main.c: 87:         tocar_nota(125,2.551);
  2958  006B6A  0E00               	movlw	0
  2959  006B6C  6E33               	movwf	(tocar_nota@duracion+1)^0,c
  2960  006B6E  0E7D               	movlw	125
  2961  006B70  6E32               	movwf	tocar_nota@duracion^0,c
  2962  006B72  0E96               	movlw	150
  2963  006B74  6E34               	movwf	tocar_nota@tfrec^0,c
  2964  006B76  0E43               	movlw	67
  2965  006B78  6E35               	movwf	(tocar_nota@tfrec+1)^0,c
  2966  006B7A  0E23               	movlw	35
  2967  006B7C  6E36               	movwf	(tocar_nota@tfrec+2)^0,c
  2968  006B7E  0E40               	movlw	64
  2969  006B80  6E37               	movwf	(tocar_nota@tfrec+3)^0,c
  2970  006B82  EC94  F02F         	call	_tocar_nota	;wreg free
  2971                           
  2972                           ;../Practica5.X/main.c: 89:         tocar_nota(1000,3.034);
  2973  006B86  0E03               	movlw	3
  2974  006B88  6E33               	movwf	(tocar_nota@duracion+1)^0,c
  2975  006B8A  0EE8               	movlw	232
  2976  006B8C  6E32               	movwf	tocar_nota@duracion^0,c
  2977  006B8E  0E0E               	movlw	14
  2978  006B90  6E34               	movwf	tocar_nota@tfrec^0,c
  2979  006B92  0E2D               	movlw	45
  2980  006B94  6E35               	movwf	(tocar_nota@tfrec+1)^0,c
  2981  006B96  0E42               	movlw	66
  2982  006B98  6E36               	movwf	(tocar_nota@tfrec+2)^0,c
  2983  006B9A  0E40               	movlw	64
  2984  006B9C  6E37               	movwf	(tocar_nota@tfrec+3)^0,c
  2985  006B9E  EC94  F02F         	call	_tocar_nota	;wreg free
  2986                           
  2987                           ;../Practica5.X/main.c: 91:         tocar_nota(500,2.028);
  2988  006BA2  0E01               	movlw	1
  2989  006BA4  6E33               	movwf	(tocar_nota@duracion+1)^0,c
  2990  006BA6  0EF4               	movlw	244
  2991  006BA8  6E32               	movwf	tocar_nota@duracion^0,c
  2992  006BAA  0EC1               	movlw	193
  2993  006BAC  6E34               	movwf	tocar_nota@tfrec^0,c
  2994  006BAE  0ECA               	movlw	202
  2995  006BB0  6E35               	movwf	(tocar_nota@tfrec+1)^0,c
  2996  006BB2  0E01               	movlw	1
  2997  006BB4  6E36               	movwf	(tocar_nota@tfrec+2)^0,c
  2998  006BB6  0E40               	movlw	64
  2999  006BB8  6E37               	movwf	(tocar_nota@tfrec+3)^0,c
  3000  006BBA  EC94  F02F         	call	_tocar_nota	;wreg free
  3001                           
  3002                           ;../Practica5.X/main.c: 92:         tocar_nota(500,2.028);
  3003  006BBE  0E01               	movlw	1
  3004  006BC0  6E33               	movwf	(tocar_nota@duracion+1)^0,c
  3005  006BC2  0EF4               	movlw	244
  3006  006BC4  6E32               	movwf	tocar_nota@duracion^0,c
  3007  006BC6  0EC1               	movlw	193
  3008  006BC8  6E34               	movwf	tocar_nota@tfrec^0,c
  3009  006BCA  0ECA               	movlw	202
  3010  006BCC  6E35               	movwf	(tocar_nota@tfrec+1)^0,c
  3011  006BCE  0E01               	movlw	1
  3012  006BD0  6E36               	movwf	(tocar_nota@tfrec+2)^0,c
  3013  006BD2  0E40               	movlw	64
  3014  006BD4  6E37               	movwf	(tocar_nota@tfrec+3)^0,c
  3015  006BD6  EC94  F02F         	call	_tocar_nota	;wreg free
  3016                           
  3017                           ;../Practica5.X/main.c: 93:         tocar_nota(500,2.028);
  3018  006BDA  0E01               	movlw	1
  3019  006BDC  6E33               	movwf	(tocar_nota@duracion+1)^0,c
  3020  006BDE  0EF4               	movlw	244
  3021  006BE0  6E32               	movwf	tocar_nota@duracion^0,c
  3022  006BE2  0EC1               	movlw	193
  3023  006BE4  6E34               	movwf	tocar_nota@tfrec^0,c
  3024  006BE6  0ECA               	movlw	202
  3025  006BE8  6E35               	movwf	(tocar_nota@tfrec+1)^0,c
  3026  006BEA  0E01               	movlw	1
  3027  006BEC  6E36               	movwf	(tocar_nota@tfrec+2)^0,c
  3028  006BEE  0E40               	movlw	64
  3029  006BF0  6E37               	movwf	(tocar_nota@tfrec+3)^0,c
  3030  006BF2  EC94  F02F         	call	_tocar_nota	;wreg free
  3031                           
  3032                           ;../Practica5.X/main.c: 95:         tocar_nota(375,1.911);
  3033  006BF6  0E01               	movlw	1
  3034  006BF8  6E33               	movwf	(tocar_nota@duracion+1)^0,c
  3035  006BFA  0E77               	movlw	119
  3036  006BFC  6E32               	movwf	tocar_nota@duracion^0,c
  3037  006BFE  0EA6               	movlw	166
  3038  006C00  6E34               	movwf	tocar_nota@tfrec^0,c
  3039  006C02  0E9B               	movlw	155
  3040  006C04  6E35               	movwf	(tocar_nota@tfrec+1)^0,c
  3041  006C06  0EF4               	movlw	244
  3042  006C08  6E36               	movwf	(tocar_nota@tfrec+2)^0,c
  3043  006C0A  0E3F               	movlw	63
  3044  006C0C  6E37               	movwf	(tocar_nota@tfrec+3)^0,c
  3045  006C0E  EC94  F02F         	call	_tocar_nota	;wreg free
  3046                           
  3047                           ;../Practica5.X/main.c: 96:         tocar_nota(125,2.551);
  3048  006C12  0E00               	movlw	0
  3049  006C14  6E33               	movwf	(tocar_nota@duracion+1)^0,c
  3050  006C16  0E7D               	movlw	125
  3051  006C18  6E32               	movwf	tocar_nota@duracion^0,c
  3052  006C1A  0E96               	movlw	150
  3053  006C1C  6E34               	movwf	tocar_nota@tfrec^0,c
  3054  006C1E  0E43               	movlw	67
  3055  006C20  6E35               	movwf	(tocar_nota@tfrec+1)^0,c
  3056  006C22  0E23               	movlw	35
  3057  006C24  6E36               	movwf	(tocar_nota@tfrec+2)^0,c
  3058  006C26  0E40               	movlw	64
  3059  006C28  6E37               	movwf	(tocar_nota@tfrec+3)^0,c
  3060  006C2A  EC94  F02F         	call	_tocar_nota	;wreg free
  3061                           
  3062                           ;../Practica5.X/main.c: 98:         tocar_nota(500,3.61);
  3063  006C2E  0E01               	movlw	1
  3064  006C30  6E33               	movwf	(tocar_nota@duracion+1)^0,c
  3065  006C32  0EF4               	movlw	244
  3066  006C34  6E32               	movwf	tocar_nota@duracion^0,c
  3067  006C36  0E3D               	movlw	61
  3068  006C38  6E34               	movwf	tocar_nota@tfrec^0,c
  3069  006C3A  0E0A               	movlw	10
  3070  006C3C  6E35               	movwf	(tocar_nota@tfrec+1)^0,c
  3071  006C3E  0E67               	movlw	103
  3072  006C40  6E36               	movwf	(tocar_nota@tfrec+2)^0,c
  3073  006C42  0E40               	movlw	64
  3074  006C44  6E37               	movwf	(tocar_nota@tfrec+3)^0,c
  3075  006C46  EC94  F02F         	call	_tocar_nota	;wreg free
  3076                           
  3077                           ;../Practica5.X/main.c: 100:          tocar_nota(375,3.82);
  3078  006C4A  0E01               	movlw	1
  3079  006C4C  6E33               	movwf	(tocar_nota@duracion+1)^0,c
  3080  006C4E  0E77               	movlw	119
  3081  006C50  6E32               	movwf	tocar_nota@duracion^0,c
  3082  006C52  0EE1               	movlw	225
  3083  006C54  6E34               	movwf	tocar_nota@tfrec^0,c
  3084  006C56  0E7A               	movlw	122
  3085  006C58  6E35               	movwf	(tocar_nota@tfrec+1)^0,c
  3086  006C5A  0E74               	movlw	116
  3087  006C5C  6E36               	movwf	(tocar_nota@tfrec+2)^0,c
  3088  006C5E  0E40               	movlw	64
  3089  006C60  6E37               	movwf	(tocar_nota@tfrec+3)^0,c
  3090  006C62  EC94  F02F         	call	_tocar_nota	;wreg free
  3091                           
  3092                           ;../Practica5.X/main.c: 101:         tocar_nota(125,2.551);
  3093  006C66  0E00               	movlw	0
  3094  006C68  6E33               	movwf	(tocar_nota@duracion+1)^0,c
  3095  006C6A  0E7D               	movlw	125
  3096  006C6C  6E32               	movwf	tocar_nota@duracion^0,c
  3097  006C6E  0E96               	movlw	150
  3098  006C70  6E34               	movwf	tocar_nota@tfrec^0,c
  3099  006C72  0E43               	movlw	67
  3100  006C74  6E35               	movwf	(tocar_nota@tfrec+1)^0,c
  3101  006C76  0E23               	movlw	35
  3102  006C78  6E36               	movwf	(tocar_nota@tfrec+2)^0,c
  3103  006C7A  0E40               	movlw	64
  3104  006C7C  6E37               	movwf	(tocar_nota@tfrec+3)^0,c
  3105  006C7E  EC94  F02F         	call	_tocar_nota	;wreg free
  3106                           
  3107                           ;../Practica5.X/main.c: 103:         tocar_nota(1000,3.034);
  3108  006C82  0E03               	movlw	3
  3109  006C84  6E33               	movwf	(tocar_nota@duracion+1)^0,c
  3110  006C86  0EE8               	movlw	232
  3111  006C88  6E32               	movwf	tocar_nota@duracion^0,c
  3112  006C8A  0E0E               	movlw	14
  3113  006C8C  6E34               	movwf	tocar_nota@tfrec^0,c
  3114  006C8E  0E2D               	movlw	45
  3115  006C90  6E35               	movwf	(tocar_nota@tfrec+1)^0,c
  3116  006C92  0E42               	movlw	66
  3117  006C94  6E36               	movwf	(tocar_nota@tfrec+2)^0,c
  3118  006C96  0E40               	movlw	64
  3119  006C98  6E37               	movwf	(tocar_nota@tfrec+3)^0,c
  3120  006C9A  EC94  F02F         	call	_tocar_nota	;wreg free
  3121                           
  3122                           ;../Practica5.X/main.c: 105:         tocar_nota(500,1.517);
  3123  006C9E  0E01               	movlw	1
  3124  006CA0  6E33               	movwf	(tocar_nota@duracion+1)^0,c
  3125  006CA2  0EF4               	movlw	244
  3126  006CA4  6E32               	movwf	tocar_nota@duracion^0,c
  3127  006CA6  0E0E               	movlw	14
  3128  006CA8  6E34               	movwf	tocar_nota@tfrec^0,c
  3129  006CAA  0E2D               	movlw	45
  3130  006CAC  6E35               	movwf	(tocar_nota@tfrec+1)^0,c
  3131  006CAE  0EC2               	movlw	194
  3132  006CB0  6E36               	movwf	(tocar_nota@tfrec+2)^0,c
  3133  006CB2  0E3F               	movlw	63
  3134  006CB4  6E37               	movwf	(tocar_nota@tfrec+3)^0,c
  3135  006CB6  EC94  F02F         	call	_tocar_nota	;wreg free
  3136                           
  3137                           ;../Practica5.X/main.c: 106:         tocar_nota(375,3.034);
  3138  006CBA  0E01               	movlw	1
  3139  006CBC  6E33               	movwf	(tocar_nota@duracion+1)^0,c
  3140  006CBE  0E77               	movlw	119
  3141  006CC0  6E32               	movwf	tocar_nota@duracion^0,c
  3142  006CC2  0E0E               	movlw	14
  3143  006CC4  6E34               	movwf	tocar_nota@tfrec^0,c
  3144  006CC6  0E2D               	movlw	45
  3145  006CC8  6E35               	movwf	(tocar_nota@tfrec+1)^0,c
  3146  006CCA  0E42               	movlw	66
  3147  006CCC  6E36               	movwf	(tocar_nota@tfrec+2)^0,c
  3148  006CCE  0E40               	movlw	64
  3149  006CD0  6E37               	movwf	(tocar_nota@tfrec+3)^0,c
  3150  006CD2  EC94  F02F         	call	_tocar_nota	;wreg free
  3151                           
  3152                           ;../Practica5.X/main.c: 107:         tocar_nota(125,3.034);
  3153  006CD6  0E00               	movlw	0
  3154  006CD8  6E33               	movwf	(tocar_nota@duracion+1)^0,c
  3155  006CDA  0E7D               	movlw	125
  3156  006CDC  6E32               	movwf	tocar_nota@duracion^0,c
  3157  006CDE  0E0E               	movlw	14
  3158  006CE0  6E34               	movwf	tocar_nota@tfrec^0,c
  3159  006CE2  0E2D               	movlw	45
  3160  006CE4  6E35               	movwf	(tocar_nota@tfrec+1)^0,c
  3161  006CE6  0E42               	movlw	66
  3162  006CE8  6E36               	movwf	(tocar_nota@tfrec+2)^0,c
  3163  006CEA  0E40               	movlw	64
  3164  006CEC  6E37               	movwf	(tocar_nota@tfrec+3)^0,c
  3165  006CEE  EC94  F02F         	call	_tocar_nota	;wreg free
  3166                           
  3167                           ;../Practica5.X/main.c: 108:         tocar_nota(500,1.517);
  3168  006CF2  0E01               	movlw	1
  3169  006CF4  6E33               	movwf	(tocar_nota@duracion+1)^0,c
  3170  006CF6  0EF4               	movlw	244
  3171  006CF8  6E32               	movwf	tocar_nota@duracion^0,c
  3172  006CFA  0E0E               	movlw	14
  3173  006CFC  6E34               	movwf	tocar_nota@tfrec^0,c
  3174  006CFE  0E2D               	movlw	45
  3175  006D00  6E35               	movwf	(tocar_nota@tfrec+1)^0,c
  3176  006D02  0EC2               	movlw	194
  3177  006D04  6E36               	movwf	(tocar_nota@tfrec+2)^0,c
  3178  006D06  0E3F               	movlw	63
  3179  006D08  6E37               	movwf	(tocar_nota@tfrec+3)^0,c
  3180  006D0A  EC94  F02F         	call	_tocar_nota	;wreg free
  3181                           
  3182                           ;../Practica5.X/main.c: 110:          tocar_nota(375,1.607);
  3183  006D0E  0E01               	movlw	1
  3184  006D10  6E33               	movwf	(tocar_nota@duracion+1)^0,c
  3185  006D12  0E77               	movlw	119
  3186  006D14  6E32               	movwf	tocar_nota@duracion^0,c
  3187  006D16  0E2D               	movlw	45
  3188  006D18  6E34               	movwf	tocar_nota@tfrec^0,c
  3189  006D1A  0EB2               	movlw	178
  3190  006D1C  6E35               	movwf	(tocar_nota@tfrec+1)^0,c
  3191  006D1E  0ECD               	movlw	205
  3192  006D20  6E36               	movwf	(tocar_nota@tfrec+2)^0,c
  3193  006D22  0E3F               	movlw	63
  3194  006D24  6E37               	movwf	(tocar_nota@tfrec+3)^0,c
  3195  006D26  EC94  F02F         	call	_tocar_nota	;wreg free
  3196                           
  3197                           ;../Practica5.X/main.c: 111:         tocar_nota(125,1.703);
  3198  006D2A  0E00               	movlw	0
  3199  006D2C  6E33               	movwf	(tocar_nota@duracion+1)^0,c
  3200  006D2E  0E7D               	movlw	125
  3201  006D30  6E32               	movwf	tocar_nota@duracion^0,c
  3202  006D32  0EE7               	movlw	231
  3203  006D34  6E34               	movwf	tocar_nota@tfrec^0,c
  3204  006D36  0EFB               	movlw	251
  3205  006D38  6E35               	movwf	(tocar_nota@tfrec+1)^0,c
  3206  006D3A  0ED9               	movlw	217
  3207  006D3C  6E36               	movwf	(tocar_nota@tfrec+2)^0,c
  3208  006D3E  0E3F               	movlw	63
  3209  006D40  6E37               	movwf	(tocar_nota@tfrec+3)^0,c
  3210  006D42  EC94  F02F         	call	_tocar_nota	;wreg free
  3211                           
  3212                           ;../Practica5.X/main.c: 113:          tocar_nota(125,1.804);
  3213  006D46  0E00               	movlw	0
  3214  006D48  6E33               	movwf	(tocar_nota@duracion+1)^0,c
  3215  006D4A  0E7D               	movlw	125
  3216  006D4C  6E32               	movwf	tocar_nota@duracion^0,c
  3217  006D4E  0E79               	movlw	121
  3218  006D50  6E34               	movwf	tocar_nota@tfrec^0,c
  3219  006D52  0EE9               	movlw	233
  3220  006D54  6E35               	movwf	(tocar_nota@tfrec+1)^0,c
  3221  006D56  0EE6               	movlw	230
  3222  006D58  6E36               	movwf	(tocar_nota@tfrec+2)^0,c
  3223  006D5A  0E3F               	movlw	63
  3224  006D5C  6E37               	movwf	(tocar_nota@tfrec+3)^0,c
  3225  006D5E  EC94  F02F         	call	_tocar_nota	;wreg free
  3226                           
  3227                           ;../Practica5.X/main.c: 114:           tocar_nota(125,1.911);
  3228  006D62  0E00               	movlw	0
  3229  006D64  6E33               	movwf	(tocar_nota@duracion+1)^0,c
  3230  006D66  0E7D               	movlw	125
  3231  006D68  6E32               	movwf	tocar_nota@duracion^0,c
  3232  006D6A  0EA6               	movlw	166
  3233  006D6C  6E34               	movwf	tocar_nota@tfrec^0,c
  3234  006D6E  0E9B               	movlw	155
  3235  006D70  6E35               	movwf	(tocar_nota@tfrec+1)^0,c
  3236  006D72  0EF4               	movlw	244
  3237  006D74  6E36               	movwf	(tocar_nota@tfrec+2)^0,c
  3238  006D76  0E3F               	movlw	63
  3239  006D78  6E37               	movwf	(tocar_nota@tfrec+3)^0,c
  3240  006D7A  EC94  F02F         	call	_tocar_nota	;wreg free
  3241                           
  3242                           ;../Practica5.X/main.c: 115:           tocar_nota(300,1.804);
  3243  006D7E  0E01               	movlw	1
  3244  006D80  6E33               	movwf	(tocar_nota@duracion+1)^0,c
  3245  006D82  0E2C               	movlw	44
  3246  006D84  6E32               	movwf	tocar_nota@duracion^0,c
  3247  006D86  0E79               	movlw	121
  3248  006D88  6E34               	movwf	tocar_nota@tfrec^0,c
  3249  006D8A  0EE9               	movlw	233
  3250  006D8C  6E35               	movwf	(tocar_nota@tfrec+1)^0,c
  3251  006D8E  0EE6               	movlw	230
  3252  006D90  6E36               	movwf	(tocar_nota@tfrec+2)^0,c
  3253  006D92  0E3F               	movlw	63
  3254  006D94  6E37               	movwf	(tocar_nota@tfrec+3)^0,c
  3255  006D96  EC94  F02F         	call	_tocar_nota	;wreg free
  3256                           
  3257                           ;../Practica5.X/main.c: 117:           silencio(100,3.822);
  3258  006D9A  0E00               	movlw	0
  3259  006D9C  6E33               	movwf	(silencio@duracion+1)^0,c
  3260  006D9E  0E64               	movlw	100
  3261  006DA0  6E32               	movwf	silencio@duracion^0,c
  3262  006DA2  0EA6               	movlw	166
  3263  006DA4  6E34               	movwf	silencio@tfrec^0,c
  3264  006DA6  0E9B               	movlw	155
  3265  006DA8  6E35               	movwf	(silencio@tfrec+1)^0,c
  3266  006DAA  0E74               	movlw	116
  3267  006DAC  6E36               	movwf	(silencio@tfrec+2)^0,c
  3268  006DAE  0E40               	movlw	64
  3269  006DB0  6E37               	movwf	(silencio@tfrec+3)^0,c
  3270  006DB2  ECDC  F02E         	call	_silencio	;wreg free
  3271                           
  3272                           ;../Practica5.X/main.c: 118:           tocar_nota(300,2.863);
  3273  006DB6  0E01               	movlw	1
  3274  006DB8  6E33               	movwf	(tocar_nota@duracion+1)^0,c
  3275  006DBA  0E2C               	movlw	44
  3276  006DBC  6E32               	movwf	tocar_nota@duracion^0,c
  3277  006DBE  0E64               	movlw	100
  3278  006DC0  6E34               	movwf	tocar_nota@tfrec^0,c
  3279  006DC2  0E3B               	movlw	59
  3280  006DC4  6E35               	movwf	(tocar_nota@tfrec+1)^0,c
  3281  006DC6  0E37               	movlw	55
  3282  006DC8  6E36               	movwf	(tocar_nota@tfrec+2)^0,c
  3283  006DCA  0E40               	movlw	64
  3284  006DCC  6E37               	movwf	(tocar_nota@tfrec+3)^0,c
  3285  006DCE  EC94  F02F         	call	_tocar_nota	;wreg free
  3286                           
  3287                           ;../Practica5.X/main.c: 119:           tocar_nota(500,2.145);
  3288  006DD2  0E01               	movlw	1
  3289  006DD4  6E33               	movwf	(tocar_nota@duracion+1)^0,c
  3290  006DD6  0EF4               	movlw	244
  3291  006DD8  6E32               	movwf	tocar_nota@duracion^0,c
  3292  006DDA  0EAE               	movlw	174
  3293  006DDC  6E34               	movwf	tocar_nota@tfrec^0,c
  3294  006DDE  0E47               	movlw	71
  3295  006DE0  6E35               	movwf	(tocar_nota@tfrec+1)^0,c
  3296  006DE2  0E09               	movlw	9
  3297  006DE4  6E36               	movwf	(tocar_nota@tfrec+2)^0,c
  3298  006DE6  0E40               	movlw	64
  3299  006DE8  6E37               	movwf	(tocar_nota@tfrec+3)^0,c
  3300  006DEA  EC94  F02F         	call	_tocar_nota	;wreg free
  3301                           
  3302                           ;../Practica5.X/main.c: 121:           tocar_nota(375,2.273);
  3303  006DEE  0E01               	movlw	1
  3304  006DF0  6E33               	movwf	(tocar_nota@duracion+1)^0,c
  3305  006DF2  0E77               	movlw	119
  3306  006DF4  6E32               	movwf	tocar_nota@duracion^0,c
  3307  006DF6  0ED5               	movlw	213
  3308  006DF8  6E34               	movwf	tocar_nota@tfrec^0,c
  3309  006DFA  0E78               	movlw	120
  3310  006DFC  6E35               	movwf	(tocar_nota@tfrec+1)^0,c
  3311  006DFE  0E11               	movlw	17
  3312  006E00  6E36               	movwf	(tocar_nota@tfrec+2)^0,c
  3313  006E02  0E40               	movlw	64
  3314  006E04  6E37               	movwf	(tocar_nota@tfrec+3)^0,c
  3315  006E06  EC94  F02F         	call	_tocar_nota	;wreg free
  3316                           
  3317                           ;../Practica5.X/main.c: 122:         tocar_nota(125,2.408);
  3318  006E0A  0E00               	movlw	0
  3319  006E0C  6E33               	movwf	(tocar_nota@duracion+1)^0,c
  3320  006E0E  0E7D               	movlw	125
  3321  006E10  6E32               	movwf	tocar_nota@duracion^0,c
  3322  006E12  0EAC               	movlw	172
  3323  006E14  6E34               	movwf	tocar_nota@tfrec^0,c
  3324  006E16  0E1C               	movlw	28
  3325  006E18  6E35               	movwf	(tocar_nota@tfrec+1)^0,c
  3326  006E1A  0E1A               	movlw	26
  3327  006E1C  6E36               	movwf	(tocar_nota@tfrec+2)^0,c
  3328  006E1E  0E40               	movlw	64
  3329  006E20  6E37               	movwf	(tocar_nota@tfrec+3)^0,c
  3330  006E22  EC94  F02F         	call	_tocar_nota	;wreg free
  3331                           
  3332                           ;../Practica5.X/main.c: 124:         tocar_nota(125,2.551);
  3333  006E26  0E00               	movlw	0
  3334  006E28  6E33               	movwf	(tocar_nota@duracion+1)^0,c
  3335  006E2A  0E7D               	movlw	125
  3336  006E2C  6E32               	movwf	tocar_nota@duracion^0,c
  3337  006E2E  0E96               	movlw	150
  3338  006E30  6E34               	movwf	tocar_nota@tfrec^0,c
  3339  006E32  0E43               	movlw	67
  3340  006E34  6E35               	movwf	(tocar_nota@tfrec+1)^0,c
  3341  006E36  0E23               	movlw	35
  3342  006E38  6E36               	movwf	(tocar_nota@tfrec+2)^0,c
  3343  006E3A  0E40               	movlw	64
  3344  006E3C  6E37               	movwf	(tocar_nota@tfrec+3)^0,c
  3345  006E3E  EC94  F02F         	call	_tocar_nota	;wreg free
  3346                           
  3347                           ;../Practica5.X/main.c: 125:         tocar_nota(125,2.703);
  3348  006E42  0E00               	movlw	0
  3349  006E44  6E33               	movwf	(tocar_nota@duracion+1)^0,c
  3350  006E46  0E7D               	movlw	125
  3351  006E48  6E32               	movwf	tocar_nota@duracion^0,c
  3352  006E4A  0EF4               	movlw	244
  3353  006E4C  6E34               	movwf	tocar_nota@tfrec^0,c
  3354  006E4E  0EFD               	movlw	253
  3355  006E50  6E35               	movwf	(tocar_nota@tfrec+1)^0,c
  3356  006E52  0E2C               	movlw	44
  3357  006E54  6E36               	movwf	(tocar_nota@tfrec+2)^0,c
  3358  006E56  0E40               	movlw	64
  3359  006E58  6E37               	movwf	(tocar_nota@tfrec+3)^0,c
  3360  006E5A  EC94  F02F         	call	_tocar_nota	;wreg free
  3361                           
  3362                           ;../Practica5.X/main.c: 126:         tocar_nota(300,2.551);
  3363  006E5E  0E01               	movlw	1
  3364  006E60  6E33               	movwf	(tocar_nota@duracion+1)^0,c
  3365  006E62  0E2C               	movlw	44
  3366  006E64  6E32               	movwf	tocar_nota@duracion^0,c
  3367  006E66  0E96               	movlw	150
  3368  006E68  6E34               	movwf	tocar_nota@tfrec^0,c
  3369  006E6A  0E43               	movlw	67
  3370  006E6C  6E35               	movwf	(tocar_nota@tfrec+1)^0,c
  3371  006E6E  0E23               	movlw	35
  3372  006E70  6E36               	movwf	(tocar_nota@tfrec+2)^0,c
  3373  006E72  0E40               	movlw	64
  3374  006E74  6E37               	movwf	(tocar_nota@tfrec+3)^0,c
  3375  006E76  EC94  F02F         	call	_tocar_nota	;wreg free
  3376                           
  3377                           ;../Practica5.X/main.c: 128:         silencio(100,3.822);
  3378  006E7A  0E00               	movlw	0
  3379  006E7C  6E33               	movwf	(silencio@duracion+1)^0,c
  3380  006E7E  0E64               	movlw	100
  3381  006E80  6E32               	movwf	silencio@duracion^0,c
  3382  006E82  0EA6               	movlw	166
  3383  006E84  6E34               	movwf	silencio@tfrec^0,c
  3384  006E86  0E9B               	movlw	155
  3385  006E88  6E35               	movwf	(silencio@tfrec+1)^0,c
  3386  006E8A  0E74               	movlw	116
  3387  006E8C  6E36               	movwf	(silencio@tfrec+2)^0,c
  3388  006E8E  0E40               	movlw	64
  3389  006E90  6E37               	movwf	(silencio@tfrec+3)^0,c
  3390  006E92  ECDC  F02E         	call	_silencio	;wreg free
  3391                           
  3392                           ;../Practica5.X/main.c: 129:         tocar_nota(300,3.822);
  3393  006E96  0E01               	movlw	1
  3394  006E98  6E33               	movwf	(tocar_nota@duracion+1)^0,c
  3395  006E9A  0E2C               	movlw	44
  3396  006E9C  6E32               	movwf	tocar_nota@duracion^0,c
  3397  006E9E  0EA6               	movlw	166
  3398  006EA0  6E34               	movwf	tocar_nota@tfrec^0,c
  3399  006EA2  0E9B               	movlw	155
  3400  006EA4  6E35               	movwf	(tocar_nota@tfrec+1)^0,c
  3401  006EA6  0E74               	movlw	116
  3402  006EA8  6E36               	movwf	(tocar_nota@tfrec+2)^0,c
  3403  006EAA  0E40               	movlw	64
  3404  006EAC  6E37               	movwf	(tocar_nota@tfrec+3)^0,c
  3405  006EAE  EC94  F02F         	call	_tocar_nota	;wreg free
  3406                           
  3407                           ;../Practica5.X/main.c: 130:         tocar_nota(500,3.608);
  3408  006EB2  0E01               	movlw	1
  3409  006EB4  6E33               	movwf	(tocar_nota@duracion+1)^0,c
  3410  006EB6  0EF4               	movlw	244
  3411  006EB8  6E32               	movwf	tocar_nota@duracion^0,c
  3412  006EBA  0E79               	movlw	121
  3413  006EBC  6E34               	movwf	tocar_nota@tfrec^0,c
  3414  006EBE  0EE9               	movlw	233
  3415  006EC0  6E35               	movwf	(tocar_nota@tfrec+1)^0,c
  3416  006EC2  0E66               	movlw	102
  3417  006EC4  6E36               	movwf	(tocar_nota@tfrec+2)^0,c
  3418  006EC6  0E40               	movlw	64
  3419  006EC8  6E37               	movwf	(tocar_nota@tfrec+3)^0,c
  3420  006ECA  EC94  F02F         	call	_tocar_nota	;wreg free
  3421                           
  3422                           ;../Practica5.X/main.c: 131:          tocar_nota(375,3.822);
  3423  006ECE  0E01               	movlw	1
  3424  006ED0  6E33               	movwf	(tocar_nota@duracion+1)^0,c
  3425  006ED2  0E77               	movlw	119
  3426  006ED4  6E32               	movwf	tocar_nota@duracion^0,c
  3427  006ED6  0EA6               	movlw	166
  3428  006ED8  6E34               	movwf	tocar_nota@tfrec^0,c
  3429  006EDA  0E9B               	movlw	155
  3430  006EDC  6E35               	movwf	(tocar_nota@tfrec+1)^0,c
  3431  006EDE  0E74               	movlw	116
  3432  006EE0  6E36               	movwf	(tocar_nota@tfrec+2)^0,c
  3433  006EE2  0E40               	movlw	64
  3434  006EE4  6E37               	movwf	(tocar_nota@tfrec+3)^0,c
  3435  006EE6  EC94  F02F         	call	_tocar_nota	;wreg free
  3436                           
  3437                           ;../Practica5.X/main.c: 132:         tocar_nota(125,2.551);
  3438  006EEA  0E00               	movlw	0
  3439  006EEC  6E33               	movwf	(tocar_nota@duracion+1)^0,c
  3440  006EEE  0E7D               	movlw	125
  3441  006EF0  6E32               	movwf	tocar_nota@duracion^0,c
  3442  006EF2  0E96               	movlw	150
  3443  006EF4  6E34               	movwf	tocar_nota@tfrec^0,c
  3444  006EF6  0E43               	movlw	67
  3445  006EF8  6E35               	movwf	(tocar_nota@tfrec+1)^0,c
  3446  006EFA  0E23               	movlw	35
  3447  006EFC  6E36               	movwf	(tocar_nota@tfrec+2)^0,c
  3448  006EFE  0E40               	movlw	64
  3449  006F00  6E37               	movwf	(tocar_nota@tfrec+3)^0,c
  3450  006F02  EC94  F02F         	call	_tocar_nota	;wreg free
  3451                           
  3452                           ;../Practica5.X/main.c: 134:         tocar_nota(500,3.034);
  3453  006F06  0E01               	movlw	1
  3454  006F08  6E33               	movwf	(tocar_nota@duracion+1)^0,c
  3455  006F0A  0EF4               	movlw	244
  3456  006F0C  6E32               	movwf	tocar_nota@duracion^0,c
  3457  006F0E  0E0E               	movlw	14
  3458  006F10  6E34               	movwf	tocar_nota@tfrec^0,c
  3459  006F12  0E2D               	movlw	45
  3460  006F14  6E35               	movwf	(tocar_nota@tfrec+1)^0,c
  3461  006F16  0E42               	movlw	66
  3462  006F18  6E36               	movwf	(tocar_nota@tfrec+2)^0,c
  3463  006F1A  0E40               	movlw	64
  3464  006F1C  6E37               	movwf	(tocar_nota@tfrec+3)^0,c
  3465  006F1E  EC94  F02F         	call	_tocar_nota	;wreg free
  3466                           
  3467                           ;../Practica5.X/main.c: 135:         tocar_nota(375,3.822);
  3468  006F22  0E01               	movlw	1
  3469  006F24  6E33               	movwf	(tocar_nota@duracion+1)^0,c
  3470  006F26  0E77               	movlw	119
  3471  006F28  6E32               	movwf	tocar_nota@duracion^0,c
  3472  006F2A  0EA6               	movlw	166
  3473  006F2C  6E34               	movwf	tocar_nota@tfrec^0,c
  3474  006F2E  0E9B               	movlw	155
  3475  006F30  6E35               	movwf	(tocar_nota@tfrec+1)^0,c
  3476  006F32  0E74               	movlw	116
  3477  006F34  6E36               	movwf	(tocar_nota@tfrec+2)^0,c
  3478  006F36  0E40               	movlw	64
  3479  006F38  6E37               	movwf	(tocar_nota@tfrec+3)^0,c
  3480  006F3A  EC94  F02F         	call	_tocar_nota	;wreg free
  3481                           
  3482                           ;../Practica5.X/main.c: 136:         tocar_nota(125,2.551);
  3483  006F3E  0E00               	movlw	0
  3484  006F40  6E33               	movwf	(tocar_nota@duracion+1)^0,c
  3485  006F42  0E7D               	movlw	125
  3486  006F44  6E32               	movwf	tocar_nota@duracion^0,c
  3487  006F46  0E96               	movlw	150
  3488  006F48  6E34               	movwf	tocar_nota@tfrec^0,c
  3489  006F4A  0E43               	movlw	67
  3490  006F4C  6E35               	movwf	(tocar_nota@tfrec+1)^0,c
  3491  006F4E  0E23               	movlw	35
  3492  006F50  6E36               	movwf	(tocar_nota@tfrec+2)^0,c
  3493  006F52  0E40               	movlw	64
  3494  006F54  6E37               	movwf	(tocar_nota@tfrec+3)^0,c
  3495  006F56  EC94  F02F         	call	_tocar_nota	;wreg free
  3496                           
  3497                           ;../Practica5.X/main.c: 137:         tocar_nota(2500,3.034);
  3498  006F5A  0E09               	movlw	9
  3499  006F5C  6E33               	movwf	(tocar_nota@duracion+1)^0,c
  3500  006F5E  0EC4               	movlw	196
  3501  006F60  6E32               	movwf	tocar_nota@duracion^0,c
  3502  006F62  0E0E               	movlw	14
  3503  006F64  6E34               	movwf	tocar_nota@tfrec^0,c
  3504  006F66  0E2D               	movlw	45
  3505  006F68  6E35               	movwf	(tocar_nota@tfrec+1)^0,c
  3506  006F6A  0E42               	movlw	66
  3507  006F6C  6E36               	movwf	(tocar_nota@tfrec+2)^0,c
  3508  006F6E  0E40               	movlw	64
  3509  006F70  6E37               	movwf	(tocar_nota@tfrec+3)^0,c
  3510  006F72  EC94  F02F         	call	_tocar_nota	;wreg free
  3511                           
  3512                           ;../Practica5.X/main.c: 138:         silencio(1000,3.822);
  3513  006F76  0E03               	movlw	3
  3514  006F78  6E33               	movwf	(silencio@duracion+1)^0,c
  3515  006F7A  0EE8               	movlw	232
  3516  006F7C  6E32               	movwf	silencio@duracion^0,c
  3517  006F7E  0EA6               	movlw	166
  3518  006F80  6E34               	movwf	silencio@tfrec^0,c
  3519  006F82  0E9B               	movlw	155
  3520  006F84  6E35               	movwf	(silencio@tfrec+1)^0,c
  3521  006F86  0E74               	movlw	116
  3522  006F88  6E36               	movwf	(silencio@tfrec+2)^0,c
  3523  006F8A  0E40               	movlw	64
  3524  006F8C  6E37               	movwf	(silencio@tfrec+3)^0,c
  3525  006F8E  ECDC  F02E         	call	_silencio	;wreg free
  3526  006F92  0012               	return		;funcret
  3527  006F94                     __end_of_cancion1:
  3528                           	callstack 0
  3529                           
  3530 ;; *************** function _tocar_nota *****************
  3531 ;; Defined at:
  3532 ;;		line 19 in file "../Practica5.X/main.c"
  3533 ;; Parameters:    Size  Location     Type
  3534 ;;  duracion        2   49[COMRAM] int 
  3535 ;;  tfrec           4   51[COMRAM] float 
  3536 ;; Auto vars:     Size  Location     Type
  3537 ;;		None
  3538 ;; Return value:  Size  Location     Type
  3539 ;;                  1    wreg      void 
  3540 ;; Registers used:
  3541 ;;		wreg, status,2, status,0, cstack
  3542 ;; Tracked objects:
  3543 ;;		On entry : 0/0
  3544 ;;		On exit  : 0/0
  3545 ;;		Unchanged: 0/0
  3546 ;; Data sizes:     COMRAM   BANK0   BANK1   BANK2   BANK3   BANK4   BANK5   BANK6   BANK7
  3547 ;;      Params:         6       0       0       0       0       0       0       0       0
  3548 ;;      Locals:         4       0       0       0       0       0       0       0       0
  3549 ;;      Temps:          1       0       0       0       0       0       0       0       0
  3550 ;;      Totals:        11       0       0       0       0       0       0       0       0
  3551 ;;Total ram usage:       11 bytes
  3552 ;; Hardware stack levels used: 1
  3553 ;; Hardware stack levels required when called: 2
  3554 ;; This function calls:
  3555 ;;		___fldiv
  3556 ;;		___flsub
  3557 ;;		___fltol
  3558 ;;		___xxtofl
  3559 ;; This function is called by:
  3560 ;;		_cancion1
  3561 ;;		_cancion2
  3562 ;;		_cancion3
  3563 ;; This function uses a non-reentrant model
  3564 ;;
  3565                           
  3566                           	psect	text5
  3567  005F28                     __ptext5:
  3568                           	callstack 0
  3569  005F28                     _tocar_nota:
  3570                           	callstack 27
  3571  005F28                     
  3572                           ;../Practica5.X/main.c: 22:      duracion = duracion/tfrec;
  3573  005F28  C034  F013         	movff	tocar_nota@tfrec,___fldiv@a
  3574  005F2C  C035  F014         	movff	tocar_nota@tfrec+1,___fldiv@a+1
  3575  005F30  C036  F015         	movff	tocar_nota@tfrec+2,___fldiv@a+2
  3576  005F34  C037  F016         	movff	tocar_nota@tfrec+3,___fldiv@a+3
  3577  005F38  C032  F001         	movff	tocar_nota@duracion,___xxtofl@val
  3578  005F3C  C033  F002         	movff	tocar_nota@duracion+1,___xxtofl@val+1
  3579  005F40  0E00               	movlw	0
  3580  005F42  BE02               	btfsc	(___xxtofl@val+1)^0,7,c
  3581  005F44  0EFF               	movlw	-1
  3582  005F46  6E03               	movwf	(___xxtofl@val+2)^0,c
  3583  005F48  6E04               	movwf	(___xxtofl@val+3)^0,c
  3584  005F4A  0E01               	movlw	1
  3585  005F4C  EC4C  F030         	call	___xxtofl
  3586  005F50  C001  F00F         	movff	?___xxtofl,___fldiv@b
  3587  005F54  C002  F010         	movff	?___xxtofl+1,___fldiv@b+1
  3588  005F58  C003  F011         	movff	?___xxtofl+2,___fldiv@b+2
  3589  005F5C  C004  F012         	movff	?___xxtofl+3,___fldiv@b+3
  3590  005F60  EC26  F031         	call	___fldiv	;wreg free
  3591  005F64  C00F  F028         	movff	?___fldiv,___fltol@f1
  3592  005F68  C010  F029         	movff	?___fldiv+1,___fltol@f1+1
  3593  005F6C  C011  F02A         	movff	?___fldiv+2,___fltol@f1+2
  3594  005F70  C012  F02B         	movff	?___fldiv+3,___fltol@f1+3
  3595  005F74  EC59  F02E         	call	___fltol	;wreg free
  3596  005F78  C028  F032         	movff	?___fltol,tocar_nota@duracion
  3597  005F7C  C029  F033         	movff	?___fltol+1,tocar_nota@duracion+1
  3598                           
  3599                           ;../Practica5.X/main.c: 23:      tfrec = 255-((tfrec/2)/(.0002*128));
  3600  005F80  0E00               	movlw	0
  3601  005F82  6E13               	movwf	___fldiv@a^0,c
  3602  005F84  0E00               	movlw	0
  3603  005F86  6E14               	movwf	(___fldiv@a+1)^0,c
  3604  005F88  0E00               	movlw	0
  3605  005F8A  6E15               	movwf	(___fldiv@a+2)^0,c
  3606  005F8C  0E40               	movlw	64
  3607  005F8E  6E16               	movwf	(___fldiv@a+3)^0,c
  3608  005F90  C034  F00F         	movff	tocar_nota@tfrec,___fldiv@b
  3609  005F94  C035  F010         	movff	tocar_nota@tfrec+1,___fldiv@b+1
  3610  005F98  C036  F011         	movff	tocar_nota@tfrec+2,___fldiv@b+2
  3611  005F9C  C037  F012         	movff	tocar_nota@tfrec+3,___fldiv@b+3
  3612  005FA0  EC26  F031         	call	___fldiv	;wreg free
  3613  005FA4  C00F  F039         	movff	?___fldiv,_tocar_nota$1015
  3614  005FA8  C010  F03A         	movff	?___fldiv+1,_tocar_nota$1015+1
  3615  005FAC  C011  F03B         	movff	?___fldiv+2,_tocar_nota$1015+2
  3616  005FB0  C012  F03C         	movff	?___fldiv+3,_tocar_nota$1015+3
  3617                           
  3618                           ;../Practica5.X/main.c: 23:      tfrec = 255-((tfrec/2)/(.0002*128));
  3619  005FB4  0E00               	movlw	0
  3620  005FB6  6E28               	movwf	___flsub@b^0,c
  3621  005FB8  0E00               	movlw	0
  3622  005FBA  6E29               	movwf	(___flsub@b+1)^0,c
  3623  005FBC  0E7F               	movlw	127
  3624  005FBE  6E2A               	movwf	(___flsub@b+2)^0,c
  3625  005FC0  0E43               	movlw	67
  3626  005FC2  6E2B               	movwf	(___flsub@b+3)^0,c
  3627  005FC4  0E17               	movlw	23
  3628  005FC6  6E13               	movwf	___fldiv@a^0,c
  3629  005FC8  0EB7               	movlw	183
  3630  005FCA  6E14               	movwf	(___fldiv@a+1)^0,c
  3631  005FCC  0ED1               	movlw	209
  3632  005FCE  6E15               	movwf	(___fldiv@a+2)^0,c
  3633  005FD0  0E3C               	movlw	60
  3634  005FD2  6E16               	movwf	(___fldiv@a+3)^0,c
  3635  005FD4  C039  F00F         	movff	_tocar_nota$1015,___fldiv@b
  3636  005FD8  C03A  F010         	movff	_tocar_nota$1015+1,___fldiv@b+1
  3637  005FDC  C03B  F011         	movff	_tocar_nota$1015+2,___fldiv@b+2
  3638  005FE0  C03C  F012         	movff	_tocar_nota$1015+3,___fldiv@b+3
  3639  005FE4  EC26  F031         	call	___fldiv	;wreg free
  3640  005FE8  C00F  F02C         	movff	?___fldiv,___flsub@a
  3641  005FEC  C010  F02D         	movff	?___fldiv+1,___flsub@a+1
  3642  005FF0  C011  F02E         	movff	?___fldiv+2,___flsub@a+2
  3643  005FF4  C012  F02F         	movff	?___fldiv+3,___flsub@a+3
  3644  005FF8  ECF8  F02D         	call	___flsub	;wreg free
  3645  005FFC  C028  F034         	movff	?___flsub,tocar_nota@tfrec
  3646  006000  C029  F035         	movff	?___flsub+1,tocar_nota@tfrec+1
  3647  006004  C02A  F036         	movff	?___flsub+2,tocar_nota@tfrec+2
  3648  006008  C02B  F037         	movff	?___flsub+3,tocar_nota@tfrec+3
  3649  00600C                     
  3650                           ;../Practica5.X/main.c: 25:        for(b=0;b<duracion;b++){
  3651  00600C  0E00               	movlw	0
  3652  00600E  6E48               	movwf	(_b+1)^0,c
  3653  006010  0E00               	movlw	0
  3654  006012  6E47               	movwf	_b^0,c
  3655  006014  EF3C  F030         	goto	l1869
  3656  006018                     l64:
  3657                           
  3658                           ;../Practica5.X/main.c: 27:             PORTAbits.RA0 = 1;
  3659  006018  8080               	bsf	128,0,c	;volatile
  3660  00601A                     
  3661                           ;../Practica5.X/main.c: 28:            TMR0 = tfrec;
  3662  00601A  C034  F028         	movff	tocar_nota@tfrec,___fltol@f1
  3663  00601E  C035  F029         	movff	tocar_nota@tfrec+1,___fltol@f1+1
  3664  006022  C036  F02A         	movff	tocar_nota@tfrec+2,___fltol@f1+2
  3665  006026  C037  F02B         	movff	tocar_nota@tfrec+3,___fltol@f1+3
  3666  00602A  EC59  F02E         	call	___fltol	;wreg free
  3667  00602E  C028  FFD6         	movff	?___fltol,4054	;volatile
  3668  006032  C029  FFD7         	movff	?___fltol+1,4055	;volatile
  3669  006036                     l65:
  3670  006036  A4F2               	btfss	242,2,c	;volatile
  3671  006038  EF20  F030         	goto	u1731
  3672  00603C  EF22  F030         	goto	u1730
  3673  006040                     u1731:
  3674  006040  EF1B  F030         	goto	l65
  3675  006044                     u1730:
  3676  006044                     
  3677                           ;../Practica5.X/main.c: 30:            INTCONbits.TMR0IF=0;
  3678  006044  94F2               	bcf	242,2,c	;volatile
  3679                           
  3680                           ;../Practica5.X/main.c: 32:         PORTAbits.RA0=0;
  3681  006046  9080               	bcf	128,0,c	;volatile
  3682  006048                     
  3683                           ;../Practica5.X/main.c: 33:          TMR0 = tfrec;
  3684  006048  C034  F028         	movff	tocar_nota@tfrec,___fltol@f1
  3685  00604C  C035  F029         	movff	tocar_nota@tfrec+1,___fltol@f1+1
  3686  006050  C036  F02A         	movff	tocar_nota@tfrec+2,___fltol@f1+2
  3687  006054  C037  F02B         	movff	tocar_nota@tfrec+3,___fltol@f1+3
  3688  006058  EC59  F02E         	call	___fltol	;wreg free
  3689  00605C  C028  FFD6         	movff	?___fltol,4054	;volatile
  3690  006060  C029  FFD7         	movff	?___fltol+1,4055	;volatile
  3691  006064                     l68:
  3692  006064  A4F2               	btfss	242,2,c	;volatile
  3693  006066  EF37  F030         	goto	u1741
  3694  00606A  EF39  F030         	goto	u1740
  3695  00606E                     u1741:
  3696  00606E  EF32  F030         	goto	l68
  3697  006072                     u1740:
  3698  006072                     
  3699                           ;../Practica5.X/main.c: 35:          INTCONbits.TMR0IF=0;
  3700  006072  94F2               	bcf	242,2,c	;volatile
  3701  006074                     
  3702                           ;../Practica5.X/main.c: 36: }
  3703  006074  4A47               	infsnz	_b^0,f,c
  3704  006076  2A48               	incf	(_b+1)^0,f,c
  3705  006078                     l1869:
  3706  006078  5032               	movf	tocar_nota@duracion^0,w,c
  3707  00607A  5C47               	subwf	_b^0,w,c
  3708  00607C  5048               	movf	(_b+1)^0,w,c
  3709  00607E  0A80               	xorlw	128
  3710  006080  6E38               	movwf	??_tocar_nota^0,c
  3711  006082  5033               	movf	(tocar_nota@duracion+1)^0,w,c
  3712  006084  0A80               	xorlw	128
  3713  006086  5838               	subwfb	??_tocar_nota^0,w,c
  3714  006088  A0D8               	btfss	status,0,c
  3715  00608A  EF49  F030         	goto	u1751
  3716  00608E  EF4B  F030         	goto	u1750
  3717  006092                     u1751:
  3718  006092  EF0C  F030         	goto	l64
  3719  006096                     u1750:
  3720  006096  0012               	return		;funcret
  3721  006098                     __end_of_tocar_nota:
  3722                           	callstack 0
  3723                           
  3724 ;; *************** function _silencio *****************
  3725 ;; Defined at:
  3726 ;;		line 39 in file "../Practica5.X/main.c"
  3727 ;; Parameters:    Size  Location     Type
  3728 ;;  duracion        2   49[COMRAM] int 
  3729 ;;  tfrec           4   51[COMRAM] float 
  3730 ;; Auto vars:     Size  Location     Type
  3731 ;;		None
  3732 ;; Return value:  Size  Location     Type
  3733 ;;                  1    wreg      void 
  3734 ;; Registers used:
  3735 ;;		wreg, status,2, status,0, cstack
  3736 ;; Tracked objects:
  3737 ;;		On entry : 0/0
  3738 ;;		On exit  : 0/0
  3739 ;;		Unchanged: 0/0
  3740 ;; Data sizes:     COMRAM   BANK0   BANK1   BANK2   BANK3   BANK4   BANK5   BANK6   BANK7
  3741 ;;      Params:         6       0       0       0       0       0       0       0       0
  3742 ;;      Locals:         4       0       0       0       0       0       0       0       0
  3743 ;;      Temps:          1       0       0       0       0       0       0       0       0
  3744 ;;      Totals:        11       0       0       0       0       0       0       0       0
  3745 ;;Total ram usage:       11 bytes
  3746 ;; Hardware stack levels used: 1
  3747 ;; Hardware stack levels required when called: 2
  3748 ;; This function calls:
  3749 ;;		___fldiv
  3750 ;;		___flsub
  3751 ;;		___fltol
  3752 ;;		___xxtofl
  3753 ;; This function is called by:
  3754 ;;		_cancion1
  3755 ;;		_cancion2
  3756 ;;		_cancion3
  3757 ;; This function uses a non-reentrant model
  3758 ;;
  3759                           
  3760                           	psect	text6
  3761  005DB8                     __ptext6:
  3762                           	callstack 0
  3763  005DB8                     _silencio:
  3764                           	callstack 27
  3765  005DB8                     
  3766                           ;../Practica5.X/main.c: 41:      duracion = duracion/tfrec;
  3767  005DB8  C034  F013         	movff	silencio@tfrec,___fldiv@a
  3768  005DBC  C035  F014         	movff	silencio@tfrec+1,___fldiv@a+1
  3769  005DC0  C036  F015         	movff	silencio@tfrec+2,___fldiv@a+2
  3770  005DC4  C037  F016         	movff	silencio@tfrec+3,___fldiv@a+3
  3771  005DC8  C032  F001         	movff	silencio@duracion,___xxtofl@val
  3772  005DCC  C033  F002         	movff	silencio@duracion+1,___xxtofl@val+1
  3773  005DD0  0E00               	movlw	0
  3774  005DD2  BE02               	btfsc	(___xxtofl@val+1)^0,7,c
  3775  005DD4  0EFF               	movlw	-1
  3776  005DD6  6E03               	movwf	(___xxtofl@val+2)^0,c
  3777  005DD8  6E04               	movwf	(___xxtofl@val+3)^0,c
  3778  005DDA  0E01               	movlw	1
  3779  005DDC  EC4C  F030         	call	___xxtofl
  3780  005DE0  C001  F00F         	movff	?___xxtofl,___fldiv@b
  3781  005DE4  C002  F010         	movff	?___xxtofl+1,___fldiv@b+1
  3782  005DE8  C003  F011         	movff	?___xxtofl+2,___fldiv@b+2
  3783  005DEC  C004  F012         	movff	?___xxtofl+3,___fldiv@b+3
  3784  005DF0  EC26  F031         	call	___fldiv	;wreg free
  3785  005DF4  C00F  F028         	movff	?___fldiv,___fltol@f1
  3786  005DF8  C010  F029         	movff	?___fldiv+1,___fltol@f1+1
  3787  005DFC  C011  F02A         	movff	?___fldiv+2,___fltol@f1+2
  3788  005E00  C012  F02B         	movff	?___fldiv+3,___fltol@f1+3
  3789  005E04  EC59  F02E         	call	___fltol	;wreg free
  3790  005E08  C028  F032         	movff	?___fltol,silencio@duracion
  3791  005E0C  C029  F033         	movff	?___fltol+1,silencio@duracion+1
  3792                           
  3793                           ;../Practica5.X/main.c: 42:      tfrec = 255-((tfrec/2)/(.0002*128));
  3794  005E10  0E00               	movlw	0
  3795  005E12  6E13               	movwf	___fldiv@a^0,c
  3796  005E14  0E00               	movlw	0
  3797  005E16  6E14               	movwf	(___fldiv@a+1)^0,c
  3798  005E18  0E00               	movlw	0
  3799  005E1A  6E15               	movwf	(___fldiv@a+2)^0,c
  3800  005E1C  0E40               	movlw	64
  3801  005E1E  6E16               	movwf	(___fldiv@a+3)^0,c
  3802  005E20  C034  F00F         	movff	silencio@tfrec,___fldiv@b
  3803  005E24  C035  F010         	movff	silencio@tfrec+1,___fldiv@b+1
  3804  005E28  C036  F011         	movff	silencio@tfrec+2,___fldiv@b+2
  3805  005E2C  C037  F012         	movff	silencio@tfrec+3,___fldiv@b+3
  3806  005E30  EC26  F031         	call	___fldiv	;wreg free
  3807  005E34  C00F  F039         	movff	?___fldiv,_silencio$1016
  3808  005E38  C010  F03A         	movff	?___fldiv+1,_silencio$1016+1
  3809  005E3C  C011  F03B         	movff	?___fldiv+2,_silencio$1016+2
  3810  005E40  C012  F03C         	movff	?___fldiv+3,_silencio$1016+3
  3811                           
  3812                           ;../Practica5.X/main.c: 42:      tfrec = 255-((tfrec/2)/(.0002*128));
  3813  005E44  0E00               	movlw	0
  3814  005E46  6E28               	movwf	___flsub@b^0,c
  3815  005E48  0E00               	movlw	0
  3816  005E4A  6E29               	movwf	(___flsub@b+1)^0,c
  3817  005E4C  0E7F               	movlw	127
  3818  005E4E  6E2A               	movwf	(___flsub@b+2)^0,c
  3819  005E50  0E43               	movlw	67
  3820  005E52  6E2B               	movwf	(___flsub@b+3)^0,c
  3821  005E54  0E17               	movlw	23
  3822  005E56  6E13               	movwf	___fldiv@a^0,c
  3823  005E58  0EB7               	movlw	183
  3824  005E5A  6E14               	movwf	(___fldiv@a+1)^0,c
  3825  005E5C  0ED1               	movlw	209
  3826  005E5E  6E15               	movwf	(___fldiv@a+2)^0,c
  3827  005E60  0E3C               	movlw	60
  3828  005E62  6E16               	movwf	(___fldiv@a+3)^0,c
  3829  005E64  C039  F00F         	movff	_silencio$1016,___fldiv@b
  3830  005E68  C03A  F010         	movff	_silencio$1016+1,___fldiv@b+1
  3831  005E6C  C03B  F011         	movff	_silencio$1016+2,___fldiv@b+2
  3832  005E70  C03C  F012         	movff	_silencio$1016+3,___fldiv@b+3
  3833  005E74  EC26  F031         	call	___fldiv	;wreg free
  3834  005E78  C00F  F02C         	movff	?___fldiv,___flsub@a
  3835  005E7C  C010  F02D         	movff	?___fldiv+1,___flsub@a+1
  3836  005E80  C011  F02E         	movff	?___fldiv+2,___flsub@a+2
  3837  005E84  C012  F02F         	movff	?___fldiv+3,___flsub@a+3
  3838  005E88  ECF8  F02D         	call	___flsub	;wreg free
  3839  005E8C  C028  F034         	movff	?___flsub,silencio@tfrec
  3840  005E90  C029  F035         	movff	?___flsub+1,silencio@tfrec+1
  3841  005E94  C02A  F036         	movff	?___flsub+2,silencio@tfrec+2
  3842  005E98  C02B  F037         	movff	?___flsub+3,silencio@tfrec+3
  3843  005E9C                     
  3844                           ;../Practica5.X/main.c: 44:        for(b=0;b<duracion;b++){
  3845  005E9C  0E00               	movlw	0
  3846  005E9E  6E48               	movwf	(_b+1)^0,c
  3847  005EA0  0E00               	movlw	0
  3848  005EA2  6E47               	movwf	_b^0,c
  3849  005EA4  EF84  F02F         	goto	l1881
  3850  005EA8                     l76:
  3851                           
  3852                           ;../Practica5.X/main.c: 45:             PORTAbits.RA0 = 0;
  3853  005EA8  9080               	bcf	128,0,c	;volatile
  3854  005EAA                     
  3855                           ;../Practica5.X/main.c: 46:            TMR0 = tfrec;
  3856  005EAA  C034  F028         	movff	silencio@tfrec,___fltol@f1
  3857  005EAE  C035  F029         	movff	silencio@tfrec+1,___fltol@f1+1
  3858  005EB2  C036  F02A         	movff	silencio@tfrec+2,___fltol@f1+2
  3859  005EB6  C037  F02B         	movff	silencio@tfrec+3,___fltol@f1+3
  3860  005EBA  EC59  F02E         	call	___fltol	;wreg free
  3861  005EBE  C028  FFD6         	movff	?___fltol,4054	;volatile
  3862  005EC2  C029  FFD7         	movff	?___fltol+1,4055	;volatile
  3863  005EC6                     l77:
  3864  005EC6  A4F2               	btfss	242,2,c	;volatile
  3865  005EC8  EF68  F02F         	goto	u1761
  3866  005ECC  EF6A  F02F         	goto	u1760
  3867  005ED0                     u1761:
  3868  005ED0  EF63  F02F         	goto	l77
  3869  005ED4                     u1760:
  3870  005ED4                     
  3871                           ;../Practica5.X/main.c: 48:            INTCONbits.TMR0IF=0;
  3872  005ED4  94F2               	bcf	242,2,c	;volatile
  3873                           
  3874                           ;../Practica5.X/main.c: 50:         PORTAbits.RA0=0;
  3875  005ED6  9080               	bcf	128,0,c	;volatile
  3876  005ED8                     
  3877                           ;../Practica5.X/main.c: 51:          TMR0 = tfrec;
  3878  005ED8  C034  F028         	movff	silencio@tfrec,___fltol@f1
  3879  005EDC  C035  F029         	movff	silencio@tfrec+1,___fltol@f1+1
  3880  005EE0  C036  F02A         	movff	silencio@tfrec+2,___fltol@f1+2
  3881  005EE4  C037  F02B         	movff	silencio@tfrec+3,___fltol@f1+3
  3882  005EE8  EC59  F02E         	call	___fltol	;wreg free
  3883  005EEC  C028  FFD6         	movff	?___fltol,4054	;volatile
  3884  005EF0  C029  FFD7         	movff	?___fltol+1,4055	;volatile
  3885  005EF4                     l80:
  3886  005EF4  A4F2               	btfss	242,2,c	;volatile
  3887  005EF6  EF7F  F02F         	goto	u1771
  3888  005EFA  EF81  F02F         	goto	u1770
  3889  005EFE                     u1771:
  3890  005EFE  EF7A  F02F         	goto	l80
  3891  005F02                     u1770:
  3892  005F02                     
  3893                           ;../Practica5.X/main.c: 53:          INTCONbits.TMR0IF=0;
  3894  005F02  94F2               	bcf	242,2,c	;volatile
  3895  005F04                     
  3896                           ;../Practica5.X/main.c: 54: }
  3897  005F04  4A47               	infsnz	_b^0,f,c
  3898  005F06  2A48               	incf	(_b+1)^0,f,c
  3899  005F08                     l1881:
  3900  005F08  5032               	movf	silencio@duracion^0,w,c
  3901  005F0A  5C47               	subwf	_b^0,w,c
  3902  005F0C  5048               	movf	(_b+1)^0,w,c
  3903  005F0E  0A80               	xorlw	128
  3904  005F10  6E38               	movwf	??_silencio^0,c
  3905  005F12  5033               	movf	(silencio@duracion+1)^0,w,c
  3906  005F14  0A80               	xorlw	128
  3907  005F16  5838               	subwfb	??_silencio^0,w,c
  3908  005F18  A0D8               	btfss	status,0,c
  3909  005F1A  EF91  F02F         	goto	u1781
  3910  005F1E  EF93  F02F         	goto	u1780
  3911  005F22                     u1781:
  3912  005F22  EF54  F02F         	goto	l76
  3913  005F26                     u1780:
  3914  005F26  0012               	return		;funcret
  3915  005F28                     __end_of_silencio:
  3916                           	callstack 0
  3917                           
  3918 ;; *************** function ___xxtofl *****************
  3919 ;; Defined at:
  3920 ;;		line 10 in file "C:\Program Files\Microchip\xc8\v2.32\pic\sources\c99\common\xxtofl.c"
  3921 ;; Parameters:    Size  Location     Type
  3922 ;;  sign            1    wreg     unsigned char 
  3923 ;;  val             4    0[COMRAM] long 
  3924 ;; Auto vars:     Size  Location     Type
  3925 ;;  sign            1    8[COMRAM] unsigned char 
  3926 ;;  arg             4   10[COMRAM] unsigned long 
  3927 ;;  exp             1    9[COMRAM] unsigned char 
  3928 ;; Return value:  Size  Location     Type
  3929 ;;                  4    0[COMRAM] unsigned char 
  3930 ;; Registers used:
  3931 ;;		wreg, status,2, status,0
  3932 ;; Tracked objects:
  3933 ;;		On entry : 0/0
  3934 ;;		On exit  : 0/0
  3935 ;;		Unchanged: 0/0
  3936 ;; Data sizes:     COMRAM   BANK0   BANK1   BANK2   BANK3   BANK4   BANK5   BANK6   BANK7
  3937 ;;      Params:         4       0       0       0       0       0       0       0       0
  3938 ;;      Locals:         6       0       0       0       0       0       0       0       0
  3939 ;;      Temps:          4       0       0       0       0       0       0       0       0
  3940 ;;      Totals:        14       0       0       0       0       0       0       0       0
  3941 ;;Total ram usage:       14 bytes
  3942 ;; Hardware stack levels used: 1
  3943 ;; This function calls:
  3944 ;;		Nothing
  3945 ;; This function is called by:
  3946 ;;		_tocar_nota
  3947 ;;		_silencio
  3948 ;; This function uses a non-reentrant model
  3949 ;;
  3950                           
  3951                           	psect	text7
  3952  006098                     __ptext7:
  3953                           	callstack 0
  3954  006098                     ___xxtofl:
  3955                           	callstack 28
  3956                           
  3957                           ;incstack = 0
  3958                           ;___xxtofl@sign stored from wreg
  3959  006098  6E09               	movwf	___xxtofl@sign^0,c
  3960  00609A  5009               	movf	___xxtofl@sign^0,w,c
  3961  00609C  B4D8               	btfsc	status,2,c
  3962  00609E  EF53  F030         	goto	u1631
  3963  0060A2  EF55  F030         	goto	u1630
  3964  0060A6                     u1631:
  3965  0060A6  EF77  F030         	goto	l775
  3966  0060AA                     u1630:
  3967  0060AA  BE04               	btfsc	(___xxtofl@val+3)^0,7,c
  3968  0060AC  EF5C  F030         	goto	u1640
  3969  0060B0  EF5A  F030         	goto	u1641
  3970  0060B4                     u1641:
  3971  0060B4  EF77  F030         	goto	l775
  3972  0060B8                     u1640:
  3973  0060B8  C001  F005         	movff	___xxtofl@val,??___xxtofl
  3974  0060BC  C002  F006         	movff	___xxtofl@val+1,??___xxtofl+1
  3975  0060C0  C003  F007         	movff	___xxtofl@val+2,??___xxtofl+2
  3976  0060C4  C004  F008         	movff	___xxtofl@val+3,??___xxtofl+3
  3977  0060C8  1E05               	comf	??___xxtofl^0,f,c
  3978  0060CA  1E06               	comf	(??___xxtofl+1)^0,f,c
  3979  0060CC  1E07               	comf	(??___xxtofl+2)^0,f,c
  3980  0060CE  1E08               	comf	(??___xxtofl+3)^0,f,c
  3981  0060D0  2A05               	incf	??___xxtofl^0,f,c
  3982  0060D2  0E00               	movlw	0
  3983  0060D4  2206               	addwfc	(??___xxtofl+1)^0,f,c
  3984  0060D6  2207               	addwfc	(??___xxtofl+2)^0,f,c
  3985  0060D8  2208               	addwfc	(??___xxtofl+3)^0,f,c
  3986  0060DA  C005  F00B         	movff	??___xxtofl,___xxtofl@arg
  3987  0060DE  C006  F00C         	movff	??___xxtofl+1,___xxtofl@arg+1
  3988  0060E2  C007  F00D         	movff	??___xxtofl+2,___xxtofl@arg+2
  3989  0060E6  C008  F00E         	movff	??___xxtofl+3,___xxtofl@arg+3
  3990  0060EA  EF7F  F030         	goto	l1819
  3991  0060EE                     l775:
  3992  0060EE  C001  F00B         	movff	___xxtofl@val,___xxtofl@arg
  3993  0060F2  C002  F00C         	movff	___xxtofl@val+1,___xxtofl@arg+1
  3994  0060F6  C003  F00D         	movff	___xxtofl@val+2,___xxtofl@arg+2
  3995  0060FA  C004  F00E         	movff	___xxtofl@val+3,___xxtofl@arg+3
  3996  0060FE                     l1819:
  3997  0060FE  5001               	movf	___xxtofl@val^0,w,c
  3998  006100  1002               	iorwf	(___xxtofl@val+1)^0,w,c
  3999  006102  1003               	iorwf	(___xxtofl@val+2)^0,w,c
  4000  006104  1004               	iorwf	(___xxtofl@val+3)^0,w,c
  4001  006106  A4D8               	btfss	status,2,c
  4002  006108  EF88  F030         	goto	u1651
  4003  00610C  EF8A  F030         	goto	u1650
  4004  006110                     u1651:
  4005  006110  EF94  F030         	goto	l1825
  4006  006114                     u1650:
  4007  006114  0E00               	movlw	0
  4008  006116  6E01               	movwf	?___xxtofl^0,c
  4009  006118  0E00               	movlw	0
  4010  00611A  6E02               	movwf	(?___xxtofl+1)^0,c
  4011  00611C  0E00               	movlw	0
  4012  00611E  6E03               	movwf	(?___xxtofl+2)^0,c
  4013  006120  0E00               	movlw	0
  4014  006122  6E04               	movwf	(?___xxtofl+3)^0,c
  4015  006124  EF25  F031         	goto	l778
  4016  006128                     l1825:
  4017  006128  0E96               	movlw	150
  4018  00612A  6E0A               	movwf	___xxtofl@exp^0,c
  4019  00612C  EF9E  F030         	goto	l1829
  4020  006130                     l1827:
  4021  006130  2A0A               	incf	___xxtofl@exp^0,f,c
  4022  006132  90D8               	bcf	status,0,c
  4023  006134  320E               	rrcf	(___xxtofl@arg+3)^0,f,c
  4024  006136  320D               	rrcf	(___xxtofl@arg+2)^0,f,c
  4025  006138  320C               	rrcf	(___xxtofl@arg+1)^0,f,c
  4026  00613A  320B               	rrcf	___xxtofl@arg^0,f,c
  4027  00613C                     l1829:
  4028  00613C  0E00               	movlw	0
  4029  00613E  140B               	andwf	___xxtofl@arg^0,w,c
  4030  006140  6E05               	movwf	??___xxtofl^0,c
  4031  006142  0E00               	movlw	0
  4032  006144  140C               	andwf	(___xxtofl@arg+1)^0,w,c
  4033  006146  6E06               	movwf	(??___xxtofl+1)^0,c
  4034  006148  0E00               	movlw	0
  4035  00614A  140D               	andwf	(___xxtofl@arg+2)^0,w,c
  4036  00614C  6E07               	movwf	(??___xxtofl+2)^0,c
  4037  00614E  0EFE               	movlw	254
  4038  006150  140E               	andwf	(___xxtofl@arg+3)^0,w,c
  4039  006152  6E08               	movwf	(??___xxtofl+3)^0,c
  4040  006154  5005               	movf	??___xxtofl^0,w,c
  4041  006156  1006               	iorwf	(??___xxtofl+1)^0,w,c
  4042  006158  1007               	iorwf	(??___xxtofl+2)^0,w,c
  4043  00615A  1008               	iorwf	(??___xxtofl+3)^0,w,c
  4044  00615C  A4D8               	btfss	status,2,c
  4045  00615E  EFB3  F030         	goto	u1661
  4046  006162  EFB5  F030         	goto	u1660
  4047  006166                     u1661:
  4048  006166  EF98  F030         	goto	l1827
  4049  00616A                     u1660:
  4050  00616A  EFC3  F030         	goto	l782
  4051  00616E                     l1831:
  4052  00616E  2A0A               	incf	___xxtofl@exp^0,f,c
  4053  006170  0E01               	movlw	1
  4054  006172  260B               	addwf	___xxtofl@arg^0,f,c
  4055  006174  0E00               	movlw	0
  4056  006176  220C               	addwfc	(___xxtofl@arg+1)^0,f,c
  4057  006178  220D               	addwfc	(___xxtofl@arg+2)^0,f,c
  4058  00617A  220E               	addwfc	(___xxtofl@arg+3)^0,f,c
  4059  00617C  90D8               	bcf	status,0,c
  4060  00617E  320E               	rrcf	(___xxtofl@arg+3)^0,f,c
  4061  006180  320D               	rrcf	(___xxtofl@arg+2)^0,f,c
  4062  006182  320C               	rrcf	(___xxtofl@arg+1)^0,f,c
  4063  006184  320B               	rrcf	___xxtofl@arg^0,f,c
  4064  006186                     l782:
  4065  006186  0E00               	movlw	0
  4066  006188  140B               	andwf	___xxtofl@arg^0,w,c
  4067  00618A  6E05               	movwf	??___xxtofl^0,c
  4068  00618C  0E00               	movlw	0
  4069  00618E  140C               	andwf	(___xxtofl@arg+1)^0,w,c
  4070  006190  6E06               	movwf	(??___xxtofl+1)^0,c
  4071  006192  0E00               	movlw	0
  4072  006194  140D               	andwf	(___xxtofl@arg+2)^0,w,c
  4073  006196  6E07               	movwf	(??___xxtofl+2)^0,c
  4074  006198  0EFF               	movlw	255
  4075  00619A  140E               	andwf	(___xxtofl@arg+3)^0,w,c
  4076  00619C  6E08               	movwf	(??___xxtofl+3)^0,c
  4077  00619E  5005               	movf	??___xxtofl^0,w,c
  4078  0061A0  1006               	iorwf	(??___xxtofl+1)^0,w,c
  4079  0061A2  1007               	iorwf	(??___xxtofl+2)^0,w,c
  4080  0061A4  1008               	iorwf	(??___xxtofl+3)^0,w,c
  4081  0061A6  A4D8               	btfss	status,2,c
  4082  0061A8  EFD8  F030         	goto	u1671
  4083  0061AC  EFDA  F030         	goto	u1670
  4084  0061B0                     u1671:
  4085  0061B0  EFB7  F030         	goto	l1831
  4086  0061B4                     u1670:
  4087  0061B4  EFE2  F030         	goto	l1839
  4088  0061B8                     l1837:
  4089  0061B8  060A               	decf	___xxtofl@exp^0,f,c
  4090  0061BA  90D8               	bcf	status,0,c
  4091  0061BC  360B               	rlcf	___xxtofl@arg^0,f,c
  4092  0061BE  360C               	rlcf	(___xxtofl@arg+1)^0,f,c
  4093  0061C0  360D               	rlcf	(___xxtofl@arg+2)^0,f,c
  4094  0061C2  360E               	rlcf	(___xxtofl@arg+3)^0,f,c
  4095  0061C4                     l1839:
  4096  0061C4  BE0D               	btfsc	(___xxtofl@arg+2)^0,7,c
  4097  0061C6  EFE7  F030         	goto	u1681
  4098  0061CA  EFE9  F030         	goto	u1680
  4099  0061CE                     u1681:
  4100  0061CE  EFF1  F030         	goto	l789
  4101  0061D2                     u1680:
  4102  0061D2  0E02               	movlw	2
  4103  0061D4  600A               	cpfslt	___xxtofl@exp^0,c
  4104  0061D6  EFEF  F030         	goto	u1691
  4105  0061DA  EFF1  F030         	goto	u1690
  4106  0061DE                     u1691:
  4107  0061DE  EFDC  F030         	goto	l1837
  4108  0061E2                     u1690:
  4109  0061E2                     l789:
  4110  0061E2  B00A               	btfsc	___xxtofl@exp^0,0,c
  4111  0061E4  EFF6  F030         	goto	u1701
  4112  0061E8  EFF8  F030         	goto	u1700
  4113  0061EC                     u1701:
  4114  0061EC  EFF9  F030         	goto	l1845
  4115  0061F0                     u1700:
  4116  0061F0  9E0D               	bcf	(___xxtofl@arg+2)^0,7,c
  4117  0061F2                     l1845:
  4118  0061F2  90D8               	bcf	status,0,c
  4119  0061F4  320A               	rrcf	___xxtofl@exp^0,f,c
  4120  0061F6  C00A  F005         	movff	___xxtofl@exp,??___xxtofl
  4121  0061FA  6A06               	clrf	(??___xxtofl+1)^0,c
  4122  0061FC  6A07               	clrf	(??___xxtofl+2)^0,c
  4123  0061FE  6A08               	clrf	(??___xxtofl+3)^0,c
  4124  006200  C005  F008         	movff	??___xxtofl,??___xxtofl+3
  4125  006204  6A07               	clrf	(??___xxtofl+2)^0,c
  4126  006206  6A06               	clrf	(??___xxtofl+1)^0,c
  4127  006208  6A05               	clrf	??___xxtofl^0,c
  4128  00620A  5005               	movf	??___xxtofl^0,w,c
  4129  00620C  120B               	iorwf	___xxtofl@arg^0,f,c
  4130  00620E  5006               	movf	(??___xxtofl+1)^0,w,c
  4131  006210  120C               	iorwf	(___xxtofl@arg+1)^0,f,c
  4132  006212  5007               	movf	(??___xxtofl+2)^0,w,c
  4133  006214  120D               	iorwf	(___xxtofl@arg+2)^0,f,c
  4134  006216  5008               	movf	(??___xxtofl+3)^0,w,c
  4135  006218  120E               	iorwf	(___xxtofl@arg+3)^0,f,c
  4136  00621A  5009               	movf	___xxtofl@sign^0,w,c
  4137  00621C  B4D8               	btfsc	status,2,c
  4138  00621E  EF13  F031         	goto	u1711
  4139  006222  EF15  F031         	goto	u1710
  4140  006226                     u1711:
  4141  006226  EF1D  F031         	goto	l1855
  4142  00622A                     u1710:
  4143  00622A  BE04               	btfsc	(___xxtofl@val+3)^0,7,c
  4144  00622C  EF1C  F031         	goto	u1720
  4145  006230  EF1A  F031         	goto	u1721
  4146  006234                     u1721:
  4147  006234  EF1D  F031         	goto	l1855
  4148  006238                     u1720:
  4149  006238  8E0E               	bsf	(___xxtofl@arg+3)^0,7,c
  4150  00623A                     l1855:
  4151  00623A  C00B  F001         	movff	___xxtofl@arg,?___xxtofl
  4152  00623E  C00C  F002         	movff	___xxtofl@arg+1,?___xxtofl+1
  4153  006242  C00D  F003         	movff	___xxtofl@arg+2,?___xxtofl+2
  4154  006246  C00E  F004         	movff	___xxtofl@arg+3,?___xxtofl+3
  4155  00624A                     l778:
  4156  00624A  0012               	return		;funcret
  4157  00624C                     __end_of___xxtofl:
  4158                           	callstack 0
  4159                           
  4160 ;; *************** function ___fltol *****************
  4161 ;; Defined at:
  4162 ;;		line 43 in file "C:\Program Files\Microchip\xc8\v2.32\pic\sources\c99\common\fltol.c"
  4163 ;; Parameters:    Size  Location     Type
  4164 ;;  f1              4   39[COMRAM] unsigned char 
  4165 ;; Auto vars:     Size  Location     Type
  4166 ;;  exp1            1   48[COMRAM] unsigned char 
  4167 ;;  sign1           1   47[COMRAM] unsigned char 
  4168 ;; Return value:  Size  Location     Type
  4169 ;;                  4   39[COMRAM] long 
  4170 ;; Registers used:
  4171 ;;		wreg, status,2, status,0
  4172 ;; Tracked objects:
  4173 ;;		On entry : 0/0
  4174 ;;		On exit  : 0/0
  4175 ;;		Unchanged: 0/0
  4176 ;; Data sizes:     COMRAM   BANK0   BANK1   BANK2   BANK3   BANK4   BANK5   BANK6   BANK7
  4177 ;;      Params:         4       0       0       0       0       0       0       0       0
  4178 ;;      Locals:         2       0       0       0       0       0       0       0       0
  4179 ;;      Temps:          4       0       0       0       0       0       0       0       0
  4180 ;;      Totals:        10       0       0       0       0       0       0       0       0
  4181 ;;Total ram usage:       10 bytes
  4182 ;; Hardware stack levels used: 1
  4183 ;; This function calls:
  4184 ;;		Nothing
  4185 ;; This function is called by:
  4186 ;;		_tocar_nota
  4187 ;;		_silencio
  4188 ;; This function uses a non-reentrant model
  4189 ;;
  4190                           
  4191                           	psect	text8
  4192  005CB2                     __ptext8:
  4193                           	callstack 0
  4194  005CB2                     ___fltol:
  4195                           	callstack 28
  4196  005CB2  342A               	rlcf	(___fltol@f1+2)^0,w,c
  4197  005CB4  342B               	rlcf	(___fltol@f1+3)^0,w,c
  4198  005CB6  6E31               	movwf	___fltol@exp1^0,c
  4199  005CB8  5031               	movf	___fltol@exp1^0,w,c
  4200  005CBA  A4D8               	btfss	status,2,c
  4201  005CBC  EF62  F02E         	goto	u1561
  4202  005CC0  EF64  F02E         	goto	u1560
  4203  005CC4                     u1561:
  4204  005CC4  EF6E  F02E         	goto	l1775
  4205  005CC8                     u1560:
  4206  005CC8                     l1771:
  4207  005CC8  0E00               	movlw	0
  4208  005CCA  6E28               	movwf	?___fltol^0,c
  4209  005CCC  0E00               	movlw	0
  4210  005CCE  6E29               	movwf	(?___fltol+1)^0,c
  4211  005CD0  0E00               	movlw	0
  4212  005CD2  6E2A               	movwf	(?___fltol+2)^0,c
  4213  005CD4  0E00               	movlw	0
  4214  005CD6  6E2B               	movwf	(?___fltol+3)^0,c
  4215  005CD8  EFDB  F02E         	goto	l417
  4216  005CDC                     l1775:
  4217  005CDC  C028  F02C         	movff	___fltol@f1,??___fltol
  4218  005CE0  C029  F02D         	movff	___fltol@f1+1,??___fltol+1
  4219  005CE4  C02A  F02E         	movff	___fltol@f1+2,??___fltol+2
  4220  005CE8  C02B  F02F         	movff	___fltol@f1+3,??___fltol+3
  4221  005CEC  0E20               	movlw	32
  4222  005CEE  EF7E  F02E         	goto	u1570
  4223  005CF2                     u1575:
  4224  005CF2  90D8               	bcf	status,0,c
  4225  005CF4  322F               	rrcf	(??___fltol+3)^0,f,c
  4226  005CF6  322E               	rrcf	(??___fltol+2)^0,f,c
  4227  005CF8  322D               	rrcf	(??___fltol+1)^0,f,c
  4228  005CFA  322C               	rrcf	??___fltol^0,f,c
  4229  005CFC                     u1570:
  4230  005CFC  2EE8               	decfsz	wreg,f,c
  4231  005CFE  EF79  F02E         	goto	u1575
  4232  005D02  502C               	movf	??___fltol^0,w,c
  4233  005D04  6E30               	movwf	___fltol@sign1^0,c
  4234  005D06  8E2A               	bsf	(___fltol@f1+2)^0,7,c
  4235  005D08  0EFF               	movlw	255
  4236  005D0A  1628               	andwf	___fltol@f1^0,f,c
  4237  005D0C  0EFF               	movlw	255
  4238  005D0E  1629               	andwf	(___fltol@f1+1)^0,f,c
  4239  005D10  0EFF               	movlw	255
  4240  005D12  162A               	andwf	(___fltol@f1+2)^0,f,c
  4241  005D14  0E00               	movlw	0
  4242  005D16  162B               	andwf	(___fltol@f1+3)^0,f,c
  4243  005D18  0E96               	movlw	150
  4244  005D1A  5E31               	subwf	___fltol@exp1^0,f,c
  4245  005D1C  BE31               	btfsc	___fltol@exp1^0,7,c
  4246  005D1E  EF95  F02E         	goto	u1580
  4247  005D22  EF93  F02E         	goto	u1581
  4248  005D26                     u1581:
  4249  005D26  EFAB  F02E         	goto	l1795
  4250  005D2A                     u1580:
  4251  005D2A  5031               	movf	___fltol@exp1^0,w,c
  4252  005D2C  0A80               	xorlw	128
  4253  005D2E  0F97               	addlw	151
  4254  005D30  B0D8               	btfsc	status,0,c
  4255  005D32  EF9D  F02E         	goto	u1591
  4256  005D36  EF9F  F02E         	goto	u1590
  4257  005D3A                     u1591:
  4258  005D3A  EFA1  F02E         	goto	l1791
  4259  005D3E                     u1590:
  4260  005D3E  EF64  F02E         	goto	l1771
  4261  005D42                     l1791:
  4262  005D42  90D8               	bcf	status,0,c
  4263  005D44  322B               	rrcf	(___fltol@f1+3)^0,f,c
  4264  005D46  322A               	rrcf	(___fltol@f1+2)^0,f,c
  4265  005D48  3229               	rrcf	(___fltol@f1+1)^0,f,c
  4266  005D4A  3228               	rrcf	___fltol@f1^0,f,c
  4267  005D4C  3E31               	incfsz	___fltol@exp1^0,f,c
  4268  005D4E  EFA1  F02E         	goto	l1791
  4269  005D52  EFC3  F02E         	goto	l1805
  4270  005D56                     l1795:
  4271  005D56  0E1F               	movlw	31
  4272  005D58  6431               	cpfsgt	___fltol@exp1^0,c
  4273  005D5A  EFB1  F02E         	goto	u1601
  4274  005D5E  EFB3  F02E         	goto	u1600
  4275  005D62                     u1601:
  4276  005D62  EFBB  F02E         	goto	l1803
  4277  005D66                     u1600:
  4278  005D66  EF64  F02E         	goto	l1771
  4279  005D6A                     l1801:
  4280  005D6A  90D8               	bcf	status,0,c
  4281  005D6C  3628               	rlcf	___fltol@f1^0,f,c
  4282  005D6E  3629               	rlcf	(___fltol@f1+1)^0,f,c
  4283  005D70  362A               	rlcf	(___fltol@f1+2)^0,f,c
  4284  005D72  362B               	rlcf	(___fltol@f1+3)^0,f,c
  4285  005D74  0631               	decf	___fltol@exp1^0,f,c
  4286  005D76                     l1803:
  4287  005D76  5031               	movf	___fltol@exp1^0,w,c
  4288  005D78  A4D8               	btfss	status,2,c
  4289  005D7A  EFC1  F02E         	goto	u1611
  4290  005D7E  EFC3  F02E         	goto	u1610
  4291  005D82                     u1611:
  4292  005D82  EFB5  F02E         	goto	l1801
  4293  005D86                     u1610:
  4294  005D86                     l1805:
  4295  005D86  5030               	movf	___fltol@sign1^0,w,c
  4296  005D88  B4D8               	btfsc	status,2,c
  4297  005D8A  EFC9  F02E         	goto	u1621
  4298  005D8E  EFCB  F02E         	goto	u1620
  4299  005D92                     u1621:
  4300  005D92  EFD3  F02E         	goto	l1809
  4301  005D96                     u1620:
  4302  005D96  1E2B               	comf	(___fltol@f1+3)^0,f,c
  4303  005D98  1E2A               	comf	(___fltol@f1+2)^0,f,c
  4304  005D9A  1E29               	comf	(___fltol@f1+1)^0,f,c
  4305  005D9C  6C28               	negf	___fltol@f1^0,c
  4306  005D9E  0E00               	movlw	0
  4307  005DA0  2229               	addwfc	(___fltol@f1+1)^0,f,c
  4308  005DA2  222A               	addwfc	(___fltol@f1+2)^0,f,c
  4309  005DA4  222B               	addwfc	(___fltol@f1+3)^0,f,c
  4310  005DA6                     l1809:
  4311  005DA6  C028  F028         	movff	___fltol@f1,?___fltol
  4312  005DAA  C029  F029         	movff	___fltol@f1+1,?___fltol+1
  4313  005DAE  C02A  F02A         	movff	___fltol@f1+2,?___fltol+2
  4314  005DB2  C02B  F02B         	movff	___fltol@f1+3,?___fltol+3
  4315  005DB6                     l417:
  4316  005DB6  0012               	return		;funcret
  4317  005DB8                     __end_of___fltol:
  4318                           	callstack 0
  4319                           
  4320 ;; *************** function ___flsub *****************
  4321 ;; Defined at:
  4322 ;;		line 245 in file "C:\Program Files\Microchip\xc8\v2.32\pic\sources\c99\common\sprcadd.c"
  4323 ;; Parameters:    Size  Location     Type
  4324 ;;  b               4   39[COMRAM] long 
  4325 ;;  a               4   43[COMRAM] long 
  4326 ;; Auto vars:     Size  Location     Type
  4327 ;;		None
  4328 ;; Return value:  Size  Location     Type
  4329 ;;                  4   39[COMRAM] long 
  4330 ;; Registers used:
  4331 ;;		wreg, status,2, status,0, cstack
  4332 ;; Tracked objects:
  4333 ;;		On entry : 0/0
  4334 ;;		On exit  : 0/0
  4335 ;;		Unchanged: 0/0
  4336 ;; Data sizes:     COMRAM   BANK0   BANK1   BANK2   BANK3   BANK4   BANK5   BANK6   BANK7
  4337 ;;      Params:         8       0       0       0       0       0       0       0       0
  4338 ;;      Locals:         0       0       0       0       0       0       0       0       0
  4339 ;;      Temps:          0       0       0       0       0       0       0       0       0
  4340 ;;      Totals:         8       0       0       0       0       0       0       0       0
  4341 ;;Total ram usage:        8 bytes
  4342 ;; Hardware stack levels used: 1
  4343 ;; Hardware stack levels required when called: 1
  4344 ;; This function calls:
  4345 ;;		___fladd
  4346 ;; This function is called by:
  4347 ;;		_tocar_nota
  4348 ;;		_silencio
  4349 ;; This function uses a non-reentrant model
  4350 ;;
  4351                           
  4352                           	psect	text9
  4353  005BF0                     __ptext9:
  4354                           	callstack 0
  4355  005BF0                     ___flsub:
  4356                           	callstack 27
  4357  005BF0  0E00               	movlw	0
  4358  005BF2  1A2C               	xorwf	___flsub@a^0,f,c
  4359  005BF4  0E00               	movlw	0
  4360  005BF6  1A2D               	xorwf	(___flsub@a+1)^0,f,c
  4361  005BF8  0E00               	movlw	0
  4362  005BFA  1A2E               	xorwf	(___flsub@a+2)^0,f,c
  4363  005BFC  0E80               	movlw	128
  4364  005BFE  1A2F               	xorwf	(___flsub@a+3)^0,f,c
  4365  005C00  C028  F001         	movff	___flsub@b,___fladd@b
  4366  005C04  C029  F002         	movff	___flsub@b+1,___fladd@b+1
  4367  005C08  C02A  F003         	movff	___flsub@b+2,___fladd@b+2
  4368  005C0C  C02B  F004         	movff	___flsub@b+3,___fladd@b+3
  4369  005C10  C02C  F005         	movff	___flsub@a,___fladd@a
  4370  005C14  C02D  F006         	movff	___flsub@a+1,___fladd@a+1
  4371  005C18  C02E  F007         	movff	___flsub@a+2,___fladd@a+2
  4372  005C1C  C02F  F008         	movff	___flsub@a+3,___fladd@a+3
  4373  005C20  ECF3  F032         	call	___fladd	;wreg free
  4374  005C24  C001  F028         	movff	?___fladd,?___flsub
  4375  005C28  C002  F029         	movff	?___fladd+1,?___flsub+1
  4376  005C2C  C003  F02A         	movff	?___fladd+2,?___flsub+2
  4377  005C30  C004  F02B         	movff	?___fladd+3,?___flsub+3
  4378  005C34  0012               	return		;funcret
  4379  005C36                     __end_of___flsub:
  4380                           	callstack 0
  4381                           
  4382 ;; *************** function ___fladd *****************
  4383 ;; Defined at:
  4384 ;;		line 10 in file "C:\Program Files\Microchip\xc8\v2.32\pic\sources\c99\common\sprcadd.c"
  4385 ;; Parameters:    Size  Location     Type
  4386 ;;  b               4    0[COMRAM] long 
  4387 ;;  a               4    4[COMRAM] long 
  4388 ;; Auto vars:     Size  Location     Type
  4389 ;;  grs             1   15[COMRAM] unsigned char 
  4390 ;;  bexp            1   14[COMRAM] unsigned char 
  4391 ;;  aexp            1   13[COMRAM] unsigned char 
  4392 ;;  signs           1   12[COMRAM] unsigned char 
  4393 ;; Return value:  Size  Location     Type
  4394 ;;                  4    0[COMRAM] unsigned char 
  4395 ;; Registers used:
  4396 ;;		wreg, status,2, status,0
  4397 ;; Tracked objects:
  4398 ;;		On entry : 0/0
  4399 ;;		On exit  : 0/0
  4400 ;;		Unchanged: 0/0
  4401 ;; Data sizes:     COMRAM   BANK0   BANK1   BANK2   BANK3   BANK4   BANK5   BANK6   BANK7
  4402 ;;      Params:         8       0       0       0       0       0       0       0       0
  4403 ;;      Locals:         4       0       0       0       0       0       0       0       0
  4404 ;;      Temps:          4       0       0       0       0       0       0       0       0
  4405 ;;      Totals:        16       0       0       0       0       0       0       0       0
  4406 ;;Total ram usage:       16 bytes
  4407 ;; Hardware stack levels used: 1
  4408 ;; This function calls:
  4409 ;;		Nothing
  4410 ;; This function is called by:
  4411 ;;		___flsub
  4412 ;; This function uses a non-reentrant model
  4413 ;;
  4414                           
  4415                           	psect	text10
  4416  0065E6                     __ptext10:
  4417                           	callstack 0
  4418  0065E6                     ___fladd:
  4419                           	callstack 27
  4420  0065E6  5004               	movf	(___fladd@b+3)^0,w,c
  4421  0065E8  0B80               	andlw	128
  4422  0065EA  6E0D               	movwf	___fladd@signs^0,c
  4423  0065EC  5004               	movf	(___fladd@b+3)^0,w,c
  4424  0065EE  2404               	addwf	(___fladd@b+3)^0,w,c
  4425  0065F0  6E0F               	movwf	___fladd@bexp^0,c
  4426  0065F2  AE03               	btfss	(___fladd@b+2)^0,7,c
  4427  0065F4  EFFE  F032         	goto	u941
  4428  0065F8  EF00  F033         	goto	u940
  4429  0065FC                     u941:
  4430  0065FC  EF01  F033         	goto	l1429
  4431  006600                     u940:
  4432  006600  800F               	bsf	___fladd@bexp^0,0,c
  4433  006602                     l1429:
  4434  006602  500F               	movf	___fladd@bexp^0,w,c
  4435  006604  B4D8               	btfsc	status,2,c
  4436  006606  EF07  F033         	goto	u951
  4437  00660A  EF09  F033         	goto	u950
  4438  00660E                     u951:
  4439  00660E  EF1E  F033         	goto	l1439
  4440  006612                     u950:
  4441  006612  280F               	incf	___fladd@bexp^0,w,c
  4442  006614  A4D8               	btfss	status,2,c
  4443  006616  EF0F  F033         	goto	u961
  4444  00661A  EF11  F033         	goto	u960
  4445  00661E                     u961:
  4446  00661E  EF19  F033         	goto	l1435
  4447  006622                     u960:
  4448  006622  0E00               	movlw	0
  4449  006624  6E01               	movwf	___fladd@b^0,c
  4450  006626  0E00               	movlw	0
  4451  006628  6E02               	movwf	(___fladd@b+1)^0,c
  4452  00662A  0E00               	movlw	0
  4453  00662C  6E03               	movwf	(___fladd@b+2)^0,c
  4454  00662E  0E00               	movlw	0
  4455  006630  6E04               	movwf	(___fladd@b+3)^0,c
  4456  006632                     l1435:
  4457  006632  8E03               	bsf	(___fladd@b+2)^0,7,c
  4458  006634  0E00               	movlw	0
  4459  006636  6E04               	movwf	(___fladd@b+3)^0,c
  4460  006638  EF26  F033         	goto	l1441
  4461  00663C                     l1439:
  4462  00663C  0E00               	movlw	0
  4463  00663E  6E01               	movwf	___fladd@b^0,c
  4464  006640  0E00               	movlw	0
  4465  006642  6E02               	movwf	(___fladd@b+1)^0,c
  4466  006644  0E00               	movlw	0
  4467  006646  6E03               	movwf	(___fladd@b+2)^0,c
  4468  006648  0E00               	movlw	0
  4469  00664A  6E04               	movwf	(___fladd@b+3)^0,c
  4470  00664C                     l1441:
  4471  00664C  5008               	movf	(___fladd@a+3)^0,w,c
  4472  00664E  0B80               	andlw	128
  4473  006650  6E0E               	movwf	___fladd@aexp^0,c
  4474  006652  500D               	movf	___fladd@signs^0,w,c
  4475  006654  180E               	xorwf	___fladd@aexp^0,w,c
  4476  006656  B4D8               	btfsc	status,2,c
  4477  006658  EF30  F033         	goto	u971
  4478  00665C  EF32  F033         	goto	u970
  4479  006660                     u971:
  4480  006660  EF33  F033         	goto	l1447
  4481  006664                     u970:
  4482  006664  8C0D               	bsf	___fladd@signs^0,6,c
  4483  006666                     l1447:
  4484  006666  5008               	movf	(___fladd@a+3)^0,w,c
  4485  006668  2408               	addwf	(___fladd@a+3)^0,w,c
  4486  00666A  6E0E               	movwf	___fladd@aexp^0,c
  4487  00666C  AE07               	btfss	(___fladd@a+2)^0,7,c
  4488  00666E  EF3B  F033         	goto	u981
  4489  006672  EF3D  F033         	goto	u980
  4490  006676                     u981:
  4491  006676  EF3E  F033         	goto	l1453
  4492  00667A                     u980:
  4493  00667A  800E               	bsf	___fladd@aexp^0,0,c
  4494  00667C                     l1453:
  4495  00667C  500E               	movf	___fladd@aexp^0,w,c
  4496  00667E  B4D8               	btfsc	status,2,c
  4497  006680  EF44  F033         	goto	u991
  4498  006684  EF46  F033         	goto	u990
  4499  006688                     u991:
  4500  006688  EF5B  F033         	goto	l1463
  4501  00668C                     u990:
  4502  00668C  280E               	incf	___fladd@aexp^0,w,c
  4503  00668E  A4D8               	btfss	status,2,c
  4504  006690  EF4C  F033         	goto	u1001
  4505  006694  EF4E  F033         	goto	u1000
  4506  006698                     u1001:
  4507  006698  EF56  F033         	goto	l1459
  4508  00669C                     u1000:
  4509  00669C  0E00               	movlw	0
  4510  00669E  6E05               	movwf	___fladd@a^0,c
  4511  0066A0  0E00               	movlw	0
  4512  0066A2  6E06               	movwf	(___fladd@a+1)^0,c
  4513  0066A4  0E00               	movlw	0
  4514  0066A6  6E07               	movwf	(___fladd@a+2)^0,c
  4515  0066A8  0E00               	movlw	0
  4516  0066AA  6E08               	movwf	(___fladd@a+3)^0,c
  4517  0066AC                     l1459:
  4518  0066AC  8E07               	bsf	(___fladd@a+2)^0,7,c
  4519  0066AE  0E00               	movlw	0
  4520  0066B0  6E08               	movwf	(___fladd@a+3)^0,c
  4521  0066B2  EF63  F033         	goto	l1465
  4522  0066B6                     l1463:
  4523  0066B6  0E00               	movlw	0
  4524  0066B8  6E05               	movwf	___fladd@a^0,c
  4525  0066BA  0E00               	movlw	0
  4526  0066BC  6E06               	movwf	(___fladd@a+1)^0,c
  4527  0066BE  0E00               	movlw	0
  4528  0066C0  6E07               	movwf	(___fladd@a+2)^0,c
  4529  0066C2  0E00               	movlw	0
  4530  0066C4  6E08               	movwf	(___fladd@a+3)^0,c
  4531  0066C6                     l1465:
  4532  0066C6  500F               	movf	___fladd@bexp^0,w,c
  4533  0066C8  5C0E               	subwf	___fladd@aexp^0,w,c
  4534  0066CA  B0D8               	btfsc	status,0,c
  4535  0066CC  EF6A  F033         	goto	u1011
  4536  0066D0  EF6C  F033         	goto	u1010
  4537  0066D4                     u1011:
  4538  0066D4  EF93  F033         	goto	l1501
  4539  0066D8                     u1010:
  4540  0066D8  AC0D               	btfss	___fladd@signs^0,6,c
  4541  0066DA  EF71  F033         	goto	u1021
  4542  0066DE  EF73  F033         	goto	u1020
  4543  0066E2                     u1021:
  4544  0066E2  EF75  F033         	goto	l1471
  4545  0066E6                     u1020:
  4546  0066E6  0E80               	movlw	128
  4547  0066E8  1A0D               	xorwf	___fladd@signs^0,f,c
  4548  0066EA                     l1471:
  4549  0066EA  C00F  F010         	movff	___fladd@bexp,___fladd@grs
  4550  0066EE  C00E  F00F         	movff	___fladd@aexp,___fladd@bexp
  4551  0066F2  C010  F00E         	movff	___fladd@grs,___fladd@aexp
  4552  0066F6  C001  F010         	movff	___fladd@b,___fladd@grs
  4553  0066FA  C005  F001         	movff	___fladd@a,___fladd@b
  4554  0066FE  C010  F005         	movff	___fladd@grs,___fladd@a
  4555  006702  C002  F010         	movff	___fladd@b+1,___fladd@grs
  4556  006706  C006  F002         	movff	___fladd@a+1,___fladd@b+1
  4557  00670A  C010  F006         	movff	___fladd@grs,___fladd@a+1
  4558  00670E  C003  F010         	movff	___fladd@b+2,___fladd@grs
  4559  006712  C007  F003         	movff	___fladd@a+2,___fladd@b+2
  4560  006716  C010  F007         	movff	___fladd@grs,___fladd@a+2
  4561  00671A  C004  F010         	movff	___fladd@b+3,___fladd@grs
  4562  00671E  C008  F004         	movff	___fladd@a+3,___fladd@b+3
  4563  006722  C010  F008         	movff	___fladd@grs,___fladd@a+3
  4564  006726                     l1501:
  4565  006726  0E00               	movlw	0
  4566  006728  6E10               	movwf	___fladd@grs^0,c
  4567  00672A  500F               	movf	___fladd@bexp^0,w,c
  4568  00672C  C00E  F009         	movff	___fladd@aexp,??___fladd
  4569  006730  6A0A               	clrf	(??___fladd+1)^0,c
  4570  006732  5E09               	subwf	??___fladd^0,f,c
  4571  006734  0E00               	movlw	0
  4572  006736  5A0A               	subwfb	(??___fladd+1)^0,f,c
  4573  006738  BE0A               	btfsc	(??___fladd+1)^0,7,c
  4574  00673A  EFA8  F033         	goto	u1031
  4575  00673E  500A               	movf	(??___fladd+1)^0,w,c
  4576  006740  E109               	bnz	u1030
  4577  006742  0E1A               	movlw	26
  4578  006744  5C09               	subwf	??___fladd^0,w,c
  4579  006746  A0D8               	btfss	status,0,c
  4580  006748  EFA8  F033         	goto	u1031
  4581  00674C  EFAA  F033         	goto	u1030
  4582  006750                     u1031:
  4583  006750  EFE1  F033         	goto	l649
  4584  006754                     u1030:
  4585  006754  5001               	movf	___fladd@b^0,w,c
  4586  006756  1002               	iorwf	(___fladd@b+1)^0,w,c
  4587  006758  1003               	iorwf	(___fladd@b+2)^0,w,c
  4588  00675A  1004               	iorwf	(___fladd@b+3)^0,w,c
  4589  00675C  A4D8               	btfss	status,2,c
  4590  00675E  EFB3  F033         	goto	u1041
  4591  006762  EFB6  F033         	goto	u1040
  4592  006766                     u1041:
  4593  006766  0E01               	movlw	1
  4594  006768  EFB7  F033         	goto	u1050
  4595  00676C                     u1040:
  4596  00676C  0E00               	movlw	0
  4597  00676E                     u1050:
  4598  00676E  6E10               	movwf	___fladd@grs^0,c
  4599  006770  0E00               	movlw	0
  4600  006772  6E01               	movwf	___fladd@b^0,c
  4601  006774  0E00               	movlw	0
  4602  006776  6E02               	movwf	(___fladd@b+1)^0,c
  4603  006778  0E00               	movlw	0
  4604  00677A  6E03               	movwf	(___fladd@b+2)^0,c
  4605  00677C  0E00               	movlw	0
  4606  00677E  6E04               	movwf	(___fladd@b+3)^0,c
  4607  006780  C00E  F00F         	movff	___fladd@aexp,___fladd@bexp
  4608  006784  EFEA  F033         	goto	l648
  4609  006788                     l650:
  4610  006788  A010               	btfss	___fladd@grs^0,0,c
  4611  00678A  EFC9  F033         	goto	u1061
  4612  00678E  EFCB  F033         	goto	u1060
  4613  006792                     u1061:
  4614  006792  EFD1  F033         	goto	l1513
  4615  006796                     u1060:
  4616  006796  90D8               	bcf	status,0,c
  4617  006798  3010               	rrcf	___fladd@grs^0,w,c
  4618  00679A  0901               	iorlw	1
  4619  00679C  6E10               	movwf	___fladd@grs^0,c
  4620  00679E  EFD3  F033         	goto	l1515
  4621  0067A2                     l1513:
  4622  0067A2  90D8               	bcf	status,0,c
  4623  0067A4  3210               	rrcf	___fladd@grs^0,f,c
  4624  0067A6                     l1515:
  4625  0067A6  A001               	btfss	___fladd@b^0,0,c
  4626  0067A8  EFD8  F033         	goto	u1071
  4627  0067AC  EFDA  F033         	goto	u1070
  4628  0067B0                     u1071:
  4629  0067B0  EFDB  F033         	goto	l1519
  4630  0067B4                     u1070:
  4631  0067B4  8E10               	bsf	___fladd@grs^0,7,c
  4632  0067B6                     l1519:
  4633  0067B6  3404               	rlcf	(___fladd@b+3)^0,w,c
  4634  0067B8  3204               	rrcf	(___fladd@b+3)^0,f,c
  4635  0067BA  3203               	rrcf	(___fladd@b+2)^0,f,c
  4636  0067BC  3202               	rrcf	(___fladd@b+1)^0,f,c
  4637  0067BE  3201               	rrcf	___fladd@b^0,f,c
  4638  0067C0  2A0F               	incf	___fladd@bexp^0,f,c
  4639  0067C2                     l649:
  4640  0067C2  500E               	movf	___fladd@aexp^0,w,c
  4641  0067C4  5C0F               	subwf	___fladd@bexp^0,w,c
  4642  0067C6  A0D8               	btfss	status,0,c
  4643  0067C8  EFE8  F033         	goto	u1081
  4644  0067CC  EFEA  F033         	goto	u1080
  4645  0067D0                     u1081:
  4646  0067D0  EFC4  F033         	goto	l650
  4647  0067D4                     u1080:
  4648  0067D4                     l648:
  4649  0067D4  BC0D               	btfsc	___fladd@signs^0,6,c
  4650  0067D6  EFEF  F033         	goto	u1091
  4651  0067DA  EFF1  F033         	goto	u1090
  4652  0067DE                     u1091:
  4653  0067DE  EF31  F034         	goto	l1547
  4654  0067E2                     u1090:
  4655  0067E2  500F               	movf	___fladd@bexp^0,w,c
  4656  0067E4  A4D8               	btfss	status,2,c
  4657  0067E6  EFF7  F033         	goto	u1101
  4658  0067EA  EFF9  F033         	goto	u1100
  4659  0067EE                     u1101:
  4660  0067EE  EF03  F034         	goto	l1529
  4661  0067F2                     u1100:
  4662  0067F2  0E00               	movlw	0
  4663  0067F4  6E01               	movwf	?___fladd^0,c
  4664  0067F6  0E00               	movlw	0
  4665  0067F8  6E02               	movwf	(?___fladd+1)^0,c
  4666  0067FA  0E00               	movlw	0
  4667  0067FC  6E03               	movwf	(?___fladd+2)^0,c
  4668  0067FE  0E00               	movlw	0
  4669  006800  6E04               	movwf	(?___fladd+3)^0,c
  4670  006802  EF52  F035         	goto	l657
  4671  006806                     l1529:
  4672  006806  5005               	movf	___fladd@a^0,w,c
  4673  006808  2601               	addwf	___fladd@b^0,f,c
  4674  00680A  5006               	movf	(___fladd@a+1)^0,w,c
  4675  00680C  2202               	addwfc	(___fladd@b+1)^0,f,c
  4676  00680E  5007               	movf	(___fladd@a+2)^0,w,c
  4677  006810  2203               	addwfc	(___fladd@b+2)^0,f,c
  4678  006812  5008               	movf	(___fladd@a+3)^0,w,c
  4679  006814  2204               	addwfc	(___fladd@b+3)^0,f,c
  4680  006816  A004               	btfss	(___fladd@b+3)^0,0,c
  4681  006818  EF10  F034         	goto	u1111
  4682  00681C  EF12  F034         	goto	u1110
  4683  006820                     u1111:
  4684  006820  EFBE  F034         	goto	l1583
  4685  006824                     u1110:
  4686  006824  A010               	btfss	___fladd@grs^0,0,c
  4687  006826  EF17  F034         	goto	u1121
  4688  00682A  EF19  F034         	goto	u1120
  4689  00682E                     u1121:
  4690  00682E  EF1F  F034         	goto	l1537
  4691  006832                     u1120:
  4692  006832  90D8               	bcf	status,0,c
  4693  006834  3010               	rrcf	___fladd@grs^0,w,c
  4694  006836  0901               	iorlw	1
  4695  006838  6E10               	movwf	___fladd@grs^0,c
  4696  00683A  EF21  F034         	goto	l1539
  4697  00683E                     l1537:
  4698  00683E  90D8               	bcf	status,0,c
  4699  006840  3210               	rrcf	___fladd@grs^0,f,c
  4700  006842                     l1539:
  4701  006842  A001               	btfss	___fladd@b^0,0,c
  4702  006844  EF26  F034         	goto	u1131
  4703  006848  EF28  F034         	goto	u1130
  4704  00684C                     u1131:
  4705  00684C  EF29  F034         	goto	l1543
  4706  006850                     u1130:
  4707  006850  8E10               	bsf	___fladd@grs^0,7,c
  4708  006852                     l1543:
  4709  006852  3404               	rlcf	(___fladd@b+3)^0,w,c
  4710  006854  3204               	rrcf	(___fladd@b+3)^0,f,c
  4711  006856  3203               	rrcf	(___fladd@b+2)^0,f,c
  4712  006858  3202               	rrcf	(___fladd@b+1)^0,f,c
  4713  00685A  3201               	rrcf	___fladd@b^0,f,c
  4714  00685C  2A0F               	incf	___fladd@bexp^0,f,c
  4715  00685E  EFBE  F034         	goto	l1583
  4716  006862                     l1547:
  4717  006862  5005               	movf	___fladd@a^0,w,c
  4718  006864  5C01               	subwf	___fladd@b^0,w,c
  4719  006866  5006               	movf	(___fladd@a+1)^0,w,c
  4720  006868  5802               	subwfb	(___fladd@b+1)^0,w,c
  4721  00686A  5007               	movf	(___fladd@a+2)^0,w,c
  4722  00686C  5803               	subwfb	(___fladd@b+2)^0,w,c
  4723  00686E  5004               	movf	(___fladd@b+3)^0,w,c
  4724  006870  0A80               	xorlw	128
  4725  006872  6E09               	movwf	??___fladd^0,c
  4726  006874  5008               	movf	(___fladd@a+3)^0,w,c
  4727  006876  0A80               	xorlw	128
  4728  006878  5809               	subwfb	??___fladd^0,w,c
  4729  00687A  B0D8               	btfsc	status,0,c
  4730  00687C  EF42  F034         	goto	u1141
  4731  006880  EF44  F034         	goto	u1140
  4732  006884                     u1141:
  4733  006884  EF6F  F034         	goto	l1557
  4734  006888                     u1140:
  4735  006888  5001               	movf	___fladd@b^0,w,c
  4736  00688A  5C05               	subwf	___fladd@a^0,w,c
  4737  00688C  6E09               	movwf	??___fladd^0,c
  4738  00688E  5002               	movf	(___fladd@b+1)^0,w,c
  4739  006890  5806               	subwfb	(___fladd@a+1)^0,w,c
  4740  006892  6E0A               	movwf	(??___fladd+1)^0,c
  4741  006894  5003               	movf	(___fladd@b+2)^0,w,c
  4742  006896  5807               	subwfb	(___fladd@a+2)^0,w,c
  4743  006898  6E0B               	movwf	(??___fladd+2)^0,c
  4744  00689A  5004               	movf	(___fladd@b+3)^0,w,c
  4745  00689C  5808               	subwfb	(___fladd@a+3)^0,w,c
  4746  00689E  6E0C               	movwf	(??___fladd+3)^0,c
  4747  0068A0  0EFF               	movlw	255
  4748  0068A2  2409               	addwf	??___fladd^0,w,c
  4749  0068A4  6E01               	movwf	___fladd@b^0,c
  4750  0068A6  0EFF               	movlw	255
  4751  0068A8  200A               	addwfc	(??___fladd+1)^0,w,c
  4752  0068AA  6E02               	movwf	(___fladd@b+1)^0,c
  4753  0068AC  0EFF               	movlw	255
  4754  0068AE  200B               	addwfc	(??___fladd+2)^0,w,c
  4755  0068B0  6E03               	movwf	(___fladd@b+2)^0,c
  4756  0068B2  0EFF               	movlw	255
  4757  0068B4  200C               	addwfc	(??___fladd+3)^0,w,c
  4758  0068B6  6E04               	movwf	(___fladd@b+3)^0,c
  4759  0068B8  0E80               	movlw	128
  4760  0068BA  1A0D               	xorwf	___fladd@signs^0,f,c
  4761  0068BC  6C10               	negf	___fladd@grs^0,c
  4762  0068BE  5010               	movf	___fladd@grs^0,w,c
  4763  0068C0  A4D8               	btfss	status,2,c
  4764  0068C2  EF65  F034         	goto	u1151
  4765  0068C6  EF67  F034         	goto	u1150
  4766  0068CA                     u1151:
  4767  0068CA  EF77  F034         	goto	l665
  4768  0068CE                     u1150:
  4769  0068CE  0E01               	movlw	1
  4770  0068D0  2601               	addwf	___fladd@b^0,f,c
  4771  0068D2  0E00               	movlw	0
  4772  0068D4  2202               	addwfc	(___fladd@b+1)^0,f,c
  4773  0068D6  2203               	addwfc	(___fladd@b+2)^0,f,c
  4774  0068D8  2204               	addwfc	(___fladd@b+3)^0,f,c
  4775  0068DA  EF77  F034         	goto	l665
  4776  0068DE                     l1557:
  4777  0068DE  5005               	movf	___fladd@a^0,w,c
  4778  0068E0  5E01               	subwf	___fladd@b^0,f,c
  4779  0068E2  5006               	movf	(___fladd@a+1)^0,w,c
  4780  0068E4  5A02               	subwfb	(___fladd@b+1)^0,f,c
  4781  0068E6  5007               	movf	(___fladd@a+2)^0,w,c
  4782  0068E8  5A03               	subwfb	(___fladd@b+2)^0,f,c
  4783  0068EA  5008               	movf	(___fladd@a+3)^0,w,c
  4784  0068EC  5A04               	subwfb	(___fladd@b+3)^0,f,c
  4785  0068EE                     l665:
  4786  0068EE  5001               	movf	___fladd@b^0,w,c
  4787  0068F0  1002               	iorwf	(___fladd@b+1)^0,w,c
  4788  0068F2  1003               	iorwf	(___fladd@b+2)^0,w,c
  4789  0068F4  1004               	iorwf	(___fladd@b+3)^0,w,c
  4790  0068F6  A4D8               	btfss	status,2,c
  4791  0068F8  EF80  F034         	goto	u1161
  4792  0068FC  EF82  F034         	goto	u1160
  4793  006900                     u1161:
  4794  006900  EFB7  F034         	goto	l1581
  4795  006904                     u1160:
  4796  006904  5010               	movf	___fladd@grs^0,w,c
  4797  006906  A4D8               	btfss	status,2,c
  4798  006908  EF88  F034         	goto	u1171
  4799  00690C  EF8A  F034         	goto	u1170
  4800  006910                     u1171:
  4801  006910  EFB7  F034         	goto	l1581
  4802  006914                     u1170:
  4803  006914  0E00               	movlw	0
  4804  006916  6E01               	movwf	?___fladd^0,c
  4805  006918  0E00               	movlw	0
  4806  00691A  6E02               	movwf	(?___fladd+1)^0,c
  4807  00691C  0E00               	movlw	0
  4808  00691E  6E03               	movwf	(?___fladd+2)^0,c
  4809  006920  0E00               	movlw	0
  4810  006922  6E04               	movwf	(?___fladd+3)^0,c
  4811  006924  EF52  F035         	goto	l657
  4812  006928                     l1565:
  4813  006928  90D8               	bcf	status,0,c
  4814  00692A  3601               	rlcf	___fladd@b^0,f,c
  4815  00692C  3602               	rlcf	(___fladd@b+1)^0,f,c
  4816  00692E  3603               	rlcf	(___fladd@b+2)^0,f,c
  4817  006930  3604               	rlcf	(___fladd@b+3)^0,f,c
  4818  006932  AE10               	btfss	___fladd@grs^0,7,c
  4819  006934  EF9E  F034         	goto	u1181
  4820  006938  EFA0  F034         	goto	u1180
  4821  00693C                     u1181:
  4822  00693C  EFA1  F034         	goto	l1571
  4823  006940                     u1180:
  4824  006940  8001               	bsf	___fladd@b^0,0,c
  4825  006942                     l1571:
  4826  006942  A010               	btfss	___fladd@grs^0,0,c
  4827  006944  EFA6  F034         	goto	u1191
  4828  006948  EFA8  F034         	goto	u1190
  4829  00694C                     u1191:
  4830  00694C  EFAC  F034         	goto	l1575
  4831  006950                     u1190:
  4832  006950  80D8               	bsf	status,0,c
  4833  006952  3610               	rlcf	___fladd@grs^0,f,c
  4834  006954  EFAE  F034         	goto	l1577
  4835  006958                     l1575:
  4836  006958  90D8               	bcf	status,0,c
  4837  00695A  3610               	rlcf	___fladd@grs^0,f,c
  4838  00695C                     l1577:
  4839  00695C  500F               	movf	___fladd@bexp^0,w,c
  4840  00695E  B4D8               	btfsc	status,2,c
  4841  006960  EFB4  F034         	goto	u1201
  4842  006964  EFB6  F034         	goto	u1200
  4843  006968                     u1201:
  4844  006968  EFB7  F034         	goto	l1581
  4845  00696C                     u1200:
  4846  00696C  060F               	decf	___fladd@bexp^0,f,c
  4847  00696E                     l1581:
  4848  00696E  AE03               	btfss	(___fladd@b+2)^0,7,c
  4849  006970  EFBC  F034         	goto	u1211
  4850  006974  EFBE  F034         	goto	u1210
  4851  006978                     u1211:
  4852  006978  EF94  F034         	goto	l1565
  4853  00697C                     u1210:
  4854  00697C                     l1583:
  4855  00697C  0E00               	movlw	0
  4856  00697E  6E0E               	movwf	___fladd@aexp^0,c
  4857  006980  AE10               	btfss	___fladd@grs^0,7,c
  4858  006982  EFC5  F034         	goto	u1221
  4859  006986  EFC7  F034         	goto	u1220
  4860  00698A                     u1221:
  4861  00698A  EFDF  F034         	goto	l674
  4862  00698E                     u1220:
  4863  00698E  C010  F009         	movff	___fladd@grs,??___fladd
  4864  006992  0E7F               	movlw	127
  4865  006994  1609               	andwf	??___fladd^0,f,c
  4866  006996  B4D8               	btfsc	status,2,c
  4867  006998  EFD0  F034         	goto	u1231
  4868  00699C  EFD2  F034         	goto	u1230
  4869  0069A0                     u1231:
  4870  0069A0  EFD6  F034         	goto	l675
  4871  0069A4                     u1230:
  4872  0069A4                     l1589:
  4873  0069A4  0E01               	movlw	1
  4874  0069A6  6E0E               	movwf	___fladd@aexp^0,c
  4875  0069A8  EFDF  F034         	goto	l674
  4876  0069AC                     l675:
  4877  0069AC  A001               	btfss	___fladd@b^0,0,c
  4878  0069AE  EFDB  F034         	goto	u1241
  4879  0069B2  EFDD  F034         	goto	u1240
  4880  0069B6                     u1241:
  4881  0069B6  EFDF  F034         	goto	l674
  4882  0069BA                     u1240:
  4883  0069BA  EFD2  F034         	goto	l1589
  4884  0069BE                     l674:
  4885  0069BE  500E               	movf	___fladd@aexp^0,w,c
  4886  0069C0  B4D8               	btfsc	status,2,c
  4887  0069C2  EFE5  F034         	goto	u1251
  4888  0069C6  EFE7  F034         	goto	u1250
  4889  0069CA                     u1251:
  4890  0069CA  EF12  F035         	goto	l1601
  4891  0069CE                     u1250:
  4892  0069CE  0E01               	movlw	1
  4893  0069D0  2601               	addwf	___fladd@b^0,f,c
  4894  0069D2  0E00               	movlw	0
  4895  0069D4  2202               	addwfc	(___fladd@b+1)^0,f,c
  4896  0069D6  2203               	addwfc	(___fladd@b+2)^0,f,c
  4897  0069D8  2204               	addwfc	(___fladd@b+3)^0,f,c
  4898  0069DA  A004               	btfss	(___fladd@b+3)^0,0,c
  4899  0069DC  EFF2  F034         	goto	u1261
  4900  0069E0  EFF4  F034         	goto	u1260
  4901  0069E4                     u1261:
  4902  0069E4  EF12  F035         	goto	l1601
  4903  0069E8                     u1260:
  4904  0069E8  C001  F009         	movff	___fladd@b,??___fladd
  4905  0069EC  C002  F00A         	movff	___fladd@b+1,??___fladd+1
  4906  0069F0  C003  F00B         	movff	___fladd@b+2,??___fladd+2
  4907  0069F4  C004  F00C         	movff	___fladd@b+3,??___fladd+3
  4908  0069F8  340C               	rlcf	(??___fladd+3)^0,w,c
  4909  0069FA  320C               	rrcf	(??___fladd+3)^0,f,c
  4910  0069FC  320B               	rrcf	(??___fladd+2)^0,f,c
  4911  0069FE  320A               	rrcf	(??___fladd+1)^0,f,c
  4912  006A00  3209               	rrcf	??___fladd^0,f,c
  4913  006A02  C009  F001         	movff	??___fladd,___fladd@b
  4914  006A06  C00A  F002         	movff	??___fladd+1,___fladd@b+1
  4915  006A0A  C00B  F003         	movff	??___fladd+2,___fladd@b+2
  4916  006A0E  C00C  F004         	movff	??___fladd+3,___fladd@b+3
  4917  006A12  280F               	incf	___fladd@bexp^0,w,c
  4918  006A14  B4D8               	btfsc	status,2,c
  4919  006A16  EF0F  F035         	goto	u1271
  4920  006A1A  EF11  F035         	goto	u1270
  4921  006A1E                     u1271:
  4922  006A1E  EF12  F035         	goto	l1601
  4923  006A22                     u1270:
  4924  006A22  2A0F               	incf	___fladd@bexp^0,f,c
  4925  006A24                     l1601:
  4926  006A24  280F               	incf	___fladd@bexp^0,w,c
  4927  006A26  B4D8               	btfsc	status,2,c
  4928  006A28  EF18  F035         	goto	u1281
  4929  006A2C  EF1A  F035         	goto	u1280
  4930  006A30                     u1281:
  4931  006A30  EF22  F035         	goto	l1605
  4932  006A34                     u1280:
  4933  006A34  500F               	movf	___fladd@bexp^0,w,c
  4934  006A36  A4D8               	btfss	status,2,c
  4935  006A38  EF20  F035         	goto	u1291
  4936  006A3C  EF22  F035         	goto	u1290
  4937  006A40                     u1291:
  4938  006A40  EF34  F035         	goto	l1609
  4939  006A44                     u1290:
  4940  006A44                     l1605:
  4941  006A44  0E00               	movlw	0
  4942  006A46  6E01               	movwf	___fladd@b^0,c
  4943  006A48  0E00               	movlw	0
  4944  006A4A  6E02               	movwf	(___fladd@b+1)^0,c
  4945  006A4C  0E00               	movlw	0
  4946  006A4E  6E03               	movwf	(___fladd@b+2)^0,c
  4947  006A50  0E00               	movlw	0
  4948  006A52  6E04               	movwf	(___fladd@b+3)^0,c
  4949  006A54  500F               	movf	___fladd@bexp^0,w,c
  4950  006A56  A4D8               	btfss	status,2,c
  4951  006A58  EF30  F035         	goto	u1301
  4952  006A5C  EF32  F035         	goto	u1300
  4953  006A60                     u1301:
  4954  006A60  EF34  F035         	goto	l1609
  4955  006A64                     u1300:
  4956  006A64  0E00               	movlw	0
  4957  006A66  6E0D               	movwf	___fladd@signs^0,c
  4958  006A68                     l1609:
  4959  006A68  A00F               	btfss	___fladd@bexp^0,0,c
  4960  006A6A  EF39  F035         	goto	u1311
  4961  006A6E  EF3B  F035         	goto	u1310
  4962  006A72                     u1311:
  4963  006A72  EF3E  F035         	goto	l1613
  4964  006A76                     u1310:
  4965  006A76  8E03               	bsf	(___fladd@b+2)^0,7,c
  4966  006A78  EF3F  F035         	goto	l1615
  4967  006A7C                     l1613:
  4968  006A7C  9E03               	bcf	(___fladd@b+2)^0,7,c
  4969  006A7E                     l1615:
  4970  006A7E  90D8               	bcf	status,0,c
  4971  006A80  300F               	rrcf	___fladd@bexp^0,w,c
  4972  006A82  6E04               	movwf	(___fladd@b+3)^0,c
  4973  006A84  AE0D               	btfss	___fladd@signs^0,7,c
  4974  006A86  EF47  F035         	goto	u1321
  4975  006A8A  EF49  F035         	goto	u1320
  4976  006A8E                     u1321:
  4977  006A8E  EF4A  F035         	goto	l1621
  4978  006A92                     u1320:
  4979  006A92  8E04               	bsf	(___fladd@b+3)^0,7,c
  4980  006A94                     l1621:
  4981  006A94  C001  F001         	movff	___fladd@b,?___fladd
  4982  006A98  C002  F002         	movff	___fladd@b+1,?___fladd+1
  4983  006A9C  C003  F003         	movff	___fladd@b+2,?___fladd+2
  4984  006AA0  C004  F004         	movff	___fladd@b+3,?___fladd+3
  4985  006AA4                     l657:
  4986  006AA4  0012               	return		;funcret
  4987  006AA6                     __end_of___fladd:
  4988                           	callstack 0
  4989                           
  4990 ;; *************** function ___fldiv *****************
  4991 ;; Defined at:
  4992 ;;		line 11 in file "C:\Program Files\Microchip\xc8\v2.32\pic\sources\c99\common\sprcdiv.c"
  4993 ;; Parameters:    Size  Location     Type
  4994 ;;  b               4   14[COMRAM] unsigned char 
  4995 ;;  a               4   18[COMRAM] unsigned char 
  4996 ;; Auto vars:     Size  Location     Type
  4997 ;;  grs             4   33[COMRAM] unsigned long 
  4998 ;;  rem             4   26[COMRAM] unsigned long 
  4999 ;;  new_exp         2   31[COMRAM] short 
  5000 ;;  aexp            1   38[COMRAM] unsigned char 
  5001 ;;  bexp            1   37[COMRAM] unsigned char 
  5002 ;;  sign            1   30[COMRAM] unsigned char 
  5003 ;; Return value:  Size  Location     Type
  5004 ;;                  4   14[COMRAM] unsigned char 
  5005 ;; Registers used:
  5006 ;;		wreg, status,2, status,0
  5007 ;; Tracked objects:
  5008 ;;		On entry : 0/0
  5009 ;;		On exit  : 0/0
  5010 ;;		Unchanged: 0/0
  5011 ;; Data sizes:     COMRAM   BANK0   BANK1   BANK2   BANK3   BANK4   BANK5   BANK6   BANK7
  5012 ;;      Params:         8       0       0       0       0       0       0       0       0
  5013 ;;      Locals:        13       0       0       0       0       0       0       0       0
  5014 ;;      Temps:          4       0       0       0       0       0       0       0       0
  5015 ;;      Totals:        25       0       0       0       0       0       0       0       0
  5016 ;;Total ram usage:       25 bytes
  5017 ;; Hardware stack levels used: 1
  5018 ;; This function calls:
  5019 ;;		Nothing
  5020 ;; This function is called by:
  5021 ;;		_tocar_nota
  5022 ;;		_silencio
  5023 ;; This function uses a non-reentrant model
  5024 ;;
  5025                           
  5026                           	psect	text11
  5027  00624C                     __ptext11:
  5028                           	callstack 0
  5029  00624C                     ___fldiv:
  5030                           	callstack 28
  5031  00624C  5012               	movf	(___fldiv@b+3)^0,w,c
  5032  00624E  0B80               	andlw	128
  5033  006250  6E1F               	movwf	___fldiv@sign^0,c
  5034  006252  5012               	movf	(___fldiv@b+3)^0,w,c
  5035  006254  2412               	addwf	(___fldiv@b+3)^0,w,c
  5036  006256  6E26               	movwf	___fldiv@bexp^0,c
  5037  006258  AE11               	btfss	(___fldiv@b+2)^0,7,c
  5038  00625A  EF31  F031         	goto	u1331
  5039  00625E  EF33  F031         	goto	u1330
  5040  006262                     u1331:
  5041  006262  EF34  F031         	goto	l1631
  5042  006266                     u1330:
  5043  006266  8026               	bsf	___fldiv@bexp^0,0,c
  5044  006268                     l1631:
  5045  006268  5026               	movf	___fldiv@bexp^0,w,c
  5046  00626A  B4D8               	btfsc	status,2,c
  5047  00626C  EF3A  F031         	goto	u1341
  5048  006270  EF3C  F031         	goto	u1340
  5049  006274                     u1341:
  5050  006274  EF51  F031         	goto	l1641
  5051  006278                     u1340:
  5052  006278  2826               	incf	___fldiv@bexp^0,w,c
  5053  00627A  A4D8               	btfss	status,2,c
  5054  00627C  EF42  F031         	goto	u1351
  5055  006280  EF44  F031         	goto	u1350
  5056  006284                     u1351:
  5057  006284  EF4C  F031         	goto	l1637
  5058  006288                     u1350:
  5059  006288  0E00               	movlw	0
  5060  00628A  6E0F               	movwf	___fldiv@b^0,c
  5061  00628C  0E00               	movlw	0
  5062  00628E  6E10               	movwf	(___fldiv@b+1)^0,c
  5063  006290  0E00               	movlw	0
  5064  006292  6E11               	movwf	(___fldiv@b+2)^0,c
  5065  006294  0E00               	movlw	0
  5066  006296  6E12               	movwf	(___fldiv@b+3)^0,c
  5067  006298                     l1637:
  5068  006298  8E11               	bsf	(___fldiv@b+2)^0,7,c
  5069  00629A  0E00               	movlw	0
  5070  00629C  6E12               	movwf	(___fldiv@b+3)^0,c
  5071  00629E  EF59  F031         	goto	l1643
  5072  0062A2                     l1641:
  5073  0062A2  0E00               	movlw	0
  5074  0062A4  6E0F               	movwf	___fldiv@b^0,c
  5075  0062A6  0E00               	movlw	0
  5076  0062A8  6E10               	movwf	(___fldiv@b+1)^0,c
  5077  0062AA  0E00               	movlw	0
  5078  0062AC  6E11               	movwf	(___fldiv@b+2)^0,c
  5079  0062AE  0E00               	movlw	0
  5080  0062B0  6E12               	movwf	(___fldiv@b+3)^0,c
  5081  0062B2                     l1643:
  5082  0062B2  5016               	movf	(___fldiv@a+3)^0,w,c
  5083  0062B4  0B80               	andlw	128
  5084  0062B6  1A1F               	xorwf	___fldiv@sign^0,f,c
  5085  0062B8  5016               	movf	(___fldiv@a+3)^0,w,c
  5086  0062BA  2416               	addwf	(___fldiv@a+3)^0,w,c
  5087  0062BC  6E27               	movwf	___fldiv@aexp^0,c
  5088  0062BE  AE15               	btfss	(___fldiv@a+2)^0,7,c
  5089  0062C0  EF64  F031         	goto	u1361
  5090  0062C4  EF66  F031         	goto	u1360
  5091  0062C8                     u1361:
  5092  0062C8  EF67  F031         	goto	l1651
  5093  0062CC                     u1360:
  5094  0062CC  8027               	bsf	___fldiv@aexp^0,0,c
  5095  0062CE                     l1651:
  5096  0062CE  5027               	movf	___fldiv@aexp^0,w,c
  5097  0062D0  B4D8               	btfsc	status,2,c
  5098  0062D2  EF6D  F031         	goto	u1371
  5099  0062D6  EF6F  F031         	goto	u1370
  5100  0062DA                     u1371:
  5101  0062DA  EF84  F031         	goto	l1661
  5102  0062DE                     u1370:
  5103  0062DE  2827               	incf	___fldiv@aexp^0,w,c
  5104  0062E0  A4D8               	btfss	status,2,c
  5105  0062E2  EF75  F031         	goto	u1381
  5106  0062E6  EF77  F031         	goto	u1380
  5107  0062EA                     u1381:
  5108  0062EA  EF7F  F031         	goto	l1657
  5109  0062EE                     u1380:
  5110  0062EE  0E00               	movlw	0
  5111  0062F0  6E13               	movwf	___fldiv@a^0,c
  5112  0062F2  0E00               	movlw	0
  5113  0062F4  6E14               	movwf	(___fldiv@a+1)^0,c
  5114  0062F6  0E00               	movlw	0
  5115  0062F8  6E15               	movwf	(___fldiv@a+2)^0,c
  5116  0062FA  0E00               	movlw	0
  5117  0062FC  6E16               	movwf	(___fldiv@a+3)^0,c
  5118  0062FE                     l1657:
  5119  0062FE  8E15               	bsf	(___fldiv@a+2)^0,7,c
  5120  006300  0E00               	movlw	0
  5121  006302  6E16               	movwf	(___fldiv@a+3)^0,c
  5122  006304  EF8C  F031         	goto	l1663
  5123  006308                     l1661:
  5124  006308  0E00               	movlw	0
  5125  00630A  6E13               	movwf	___fldiv@a^0,c
  5126  00630C  0E00               	movlw	0
  5127  00630E  6E14               	movwf	(___fldiv@a+1)^0,c
  5128  006310  0E00               	movlw	0
  5129  006312  6E15               	movwf	(___fldiv@a+2)^0,c
  5130  006314  0E00               	movlw	0
  5131  006316  6E16               	movwf	(___fldiv@a+3)^0,c
  5132  006318                     l1663:
  5133  006318  5013               	movf	___fldiv@a^0,w,c
  5134  00631A  1014               	iorwf	(___fldiv@a+1)^0,w,c
  5135  00631C  1015               	iorwf	(___fldiv@a+2)^0,w,c
  5136  00631E  1016               	iorwf	(___fldiv@a+3)^0,w,c
  5137  006320  A4D8               	btfss	status,2,c
  5138  006322  EF95  F031         	goto	u1391
  5139  006326  EF97  F031         	goto	u1390
  5140  00632A                     u1391:
  5141  00632A  EFAF  F031         	goto	l1675
  5142  00632E                     u1390:
  5143  00632E  0E00               	movlw	0
  5144  006330  6E0F               	movwf	___fldiv@b^0,c
  5145  006332  0E00               	movlw	0
  5146  006334  6E10               	movwf	(___fldiv@b+1)^0,c
  5147  006336  0E00               	movlw	0
  5148  006338  6E11               	movwf	(___fldiv@b+2)^0,c
  5149  00633A  0E00               	movlw	0
  5150  00633C  6E12               	movwf	(___fldiv@b+3)^0,c
  5151  00633E  0E80               	movlw	128
  5152  006340  1211               	iorwf	(___fldiv@b+2)^0,f,c
  5153  006342  0E7F               	movlw	127
  5154  006344  1212               	iorwf	(___fldiv@b+3)^0,f,c
  5155  006346                     l1669:
  5156  006346  501F               	movf	___fldiv@sign^0,w,c
  5157  006348  1212               	iorwf	(___fldiv@b+3)^0,f,c
  5158  00634A  C00F  F00F         	movff	___fldiv@b,?___fldiv
  5159  00634E  C010  F010         	movff	___fldiv@b+1,?___fldiv+1
  5160  006352  C011  F011         	movff	___fldiv@b+2,?___fldiv+2
  5161  006356  C012  F012         	movff	___fldiv@b+3,?___fldiv+3
  5162  00635A  EFF2  F032         	goto	l702
  5163  00635E                     l1675:
  5164  00635E  5026               	movf	___fldiv@bexp^0,w,c
  5165  006360  A4D8               	btfss	status,2,c
  5166  006362  EFB5  F031         	goto	u1401
  5167  006366  EFB7  F031         	goto	u1400
  5168  00636A                     u1401:
  5169  00636A  EFC1  F031         	goto	l1683
  5170  00636E                     u1400:
  5171  00636E  0E00               	movlw	0
  5172  006370  6E0F               	movwf	?___fldiv^0,c
  5173  006372  0E00               	movlw	0
  5174  006374  6E10               	movwf	(?___fldiv+1)^0,c
  5175  006376  0E00               	movlw	0
  5176  006378  6E11               	movwf	(?___fldiv+2)^0,c
  5177  00637A  0E00               	movlw	0
  5178  00637C  6E12               	movwf	(?___fldiv+3)^0,c
  5179  00637E  EFF2  F032         	goto	l702
  5180  006382                     l1683:
  5181  006382  5027               	movf	___fldiv@aexp^0,w,c
  5182  006384  C026  F017         	movff	___fldiv@bexp,??___fldiv
  5183  006388  6A18               	clrf	(??___fldiv+1)^0,c
  5184  00638A  5E17               	subwf	??___fldiv^0,f,c
  5185  00638C  0E00               	movlw	0
  5186  00638E  5A18               	subwfb	(??___fldiv+1)^0,f,c
  5187  006390  0E7F               	movlw	127
  5188  006392  2417               	addwf	??___fldiv^0,w,c
  5189  006394  6E20               	movwf	___fldiv@new_exp^0,c
  5190  006396  0E00               	movlw	0
  5191  006398  2018               	addwfc	(??___fldiv+1)^0,w,c
  5192  00639A  6E21               	movwf	(___fldiv@new_exp+1)^0,c
  5193  00639C  C00F  F01B         	movff	___fldiv@b,___fldiv@rem
  5194  0063A0  C010  F01C         	movff	___fldiv@b+1,___fldiv@rem+1
  5195  0063A4  C011  F01D         	movff	___fldiv@b+2,___fldiv@rem+2
  5196  0063A8  C012  F01E         	movff	___fldiv@b+3,___fldiv@rem+3
  5197  0063AC  0E00               	movlw	0
  5198  0063AE  6E0F               	movwf	___fldiv@b^0,c
  5199  0063B0  0E00               	movlw	0
  5200  0063B2  6E10               	movwf	(___fldiv@b+1)^0,c
  5201  0063B4  0E00               	movlw	0
  5202  0063B6  6E11               	movwf	(___fldiv@b+2)^0,c
  5203  0063B8  0E00               	movlw	0
  5204  0063BA  6E12               	movwf	(___fldiv@b+3)^0,c
  5205  0063BC  0E00               	movlw	0
  5206  0063BE  6E22               	movwf	___fldiv@grs^0,c
  5207  0063C0  0E00               	movlw	0
  5208  0063C2  6E23               	movwf	(___fldiv@grs+1)^0,c
  5209  0063C4  0E00               	movlw	0
  5210  0063C6  6E24               	movwf	(___fldiv@grs+2)^0,c
  5211  0063C8  0E00               	movlw	0
  5212  0063CA  6E25               	movwf	(___fldiv@grs+3)^0,c
  5213  0063CC  0E00               	movlw	0
  5214  0063CE  6E27               	movwf	___fldiv@aexp^0,c
  5215  0063D0  EF22  F032         	goto	l704
  5216  0063D4                     l1693:
  5217  0063D4  5027               	movf	___fldiv@aexp^0,w,c
  5218  0063D6  B4D8               	btfsc	status,2,c
  5219  0063D8  EFF0  F031         	goto	u1411
  5220  0063DC  EFF2  F031         	goto	u1410
  5221  0063E0                     u1411:
  5222  0063E0  EF09  F032         	goto	l1701
  5223  0063E4                     u1410:
  5224  0063E4  90D8               	bcf	status,0,c
  5225  0063E6  361B               	rlcf	___fldiv@rem^0,f,c
  5226  0063E8  361C               	rlcf	(___fldiv@rem+1)^0,f,c
  5227  0063EA  361D               	rlcf	(___fldiv@rem+2)^0,f,c
  5228  0063EC  361E               	rlcf	(___fldiv@rem+3)^0,f,c
  5229  0063EE  90D8               	bcf	status,0,c
  5230  0063F0  360F               	rlcf	___fldiv@b^0,f,c
  5231  0063F2  3610               	rlcf	(___fldiv@b+1)^0,f,c
  5232  0063F4  3611               	rlcf	(___fldiv@b+2)^0,f,c
  5233  0063F6  3612               	rlcf	(___fldiv@b+3)^0,f,c
  5234  0063F8  AE25               	btfss	(___fldiv@grs+3)^0,7,c
  5235  0063FA  EF01  F032         	goto	u1421
  5236  0063FE  EF03  F032         	goto	u1420
  5237  006402                     u1421:
  5238  006402  EF04  F032         	goto	l707
  5239  006406                     u1420:
  5240  006406  800F               	bsf	___fldiv@b^0,0,c
  5241  006408                     l707:
  5242  006408  90D8               	bcf	status,0,c
  5243  00640A  3622               	rlcf	___fldiv@grs^0,f,c
  5244  00640C  3623               	rlcf	(___fldiv@grs+1)^0,f,c
  5245  00640E  3624               	rlcf	(___fldiv@grs+2)^0,f,c
  5246  006410  3625               	rlcf	(___fldiv@grs+3)^0,f,c
  5247  006412                     l1701:
  5248  006412  5013               	movf	___fldiv@a^0,w,c
  5249  006414  5C1B               	subwf	___fldiv@rem^0,w,c
  5250  006416  5014               	movf	(___fldiv@a+1)^0,w,c
  5251  006418  581C               	subwfb	(___fldiv@rem+1)^0,w,c
  5252  00641A  5015               	movf	(___fldiv@a+2)^0,w,c
  5253  00641C  581D               	subwfb	(___fldiv@rem+2)^0,w,c
  5254  00641E  5016               	movf	(___fldiv@a+3)^0,w,c
  5255  006420  581E               	subwfb	(___fldiv@rem+3)^0,w,c
  5256  006422  A0D8               	btfss	status,0,c
  5257  006424  EF16  F032         	goto	u1431
  5258  006428  EF18  F032         	goto	u1430
  5259  00642C                     u1431:
  5260  00642C  EF21  F032         	goto	l1707
  5261  006430                     u1430:
  5262  006430  8C25               	bsf	(___fldiv@grs+3)^0,6,c
  5263  006432  5013               	movf	___fldiv@a^0,w,c
  5264  006434  5E1B               	subwf	___fldiv@rem^0,f,c
  5265  006436  5014               	movf	(___fldiv@a+1)^0,w,c
  5266  006438  5A1C               	subwfb	(___fldiv@rem+1)^0,f,c
  5267  00643A  5015               	movf	(___fldiv@a+2)^0,w,c
  5268  00643C  5A1D               	subwfb	(___fldiv@rem+2)^0,f,c
  5269  00643E  5016               	movf	(___fldiv@a+3)^0,w,c
  5270  006440  5A1E               	subwfb	(___fldiv@rem+3)^0,f,c
  5271  006442                     l1707:
  5272  006442  2A27               	incf	___fldiv@aexp^0,f,c
  5273  006444                     l704:
  5274  006444  0E19               	movlw	25
  5275  006446  6427               	cpfsgt	___fldiv@aexp^0,c
  5276  006448  EF28  F032         	goto	u1441
  5277  00644C  EF2A  F032         	goto	u1440
  5278  006450                     u1441:
  5279  006450  EFEA  F031         	goto	l1693
  5280  006454                     u1440:
  5281  006454  501B               	movf	___fldiv@rem^0,w,c
  5282  006456  101C               	iorwf	(___fldiv@rem+1)^0,w,c
  5283  006458  101D               	iorwf	(___fldiv@rem+2)^0,w,c
  5284  00645A  101E               	iorwf	(___fldiv@rem+3)^0,w,c
  5285  00645C  B4D8               	btfsc	status,2,c
  5286  00645E  EF33  F032         	goto	u1451
  5287  006462  EF35  F032         	goto	u1450
  5288  006466                     u1451:
  5289  006466  EF4D  F032         	goto	l1719
  5290  00646A                     u1450:
  5291  00646A  8022               	bsf	___fldiv@grs^0,0,c
  5292  00646C  EF4D  F032         	goto	l1719
  5293  006470                     l1713:
  5294  006470  90D8               	bcf	status,0,c
  5295  006472  360F               	rlcf	___fldiv@b^0,f,c
  5296  006474  3610               	rlcf	(___fldiv@b+1)^0,f,c
  5297  006476  3611               	rlcf	(___fldiv@b+2)^0,f,c
  5298  006478  3612               	rlcf	(___fldiv@b+3)^0,f,c
  5299  00647A  AE25               	btfss	(___fldiv@grs+3)^0,7,c
  5300  00647C  EF42  F032         	goto	u1461
  5301  006480  EF44  F032         	goto	u1460
  5302  006484                     u1461:
  5303  006484  EF45  F032         	goto	l713
  5304  006488                     u1460:
  5305  006488  800F               	bsf	___fldiv@b^0,0,c
  5306  00648A                     l713:
  5307  00648A  90D8               	bcf	status,0,c
  5308  00648C  3622               	rlcf	___fldiv@grs^0,f,c
  5309  00648E  3623               	rlcf	(___fldiv@grs+1)^0,f,c
  5310  006490  3624               	rlcf	(___fldiv@grs+2)^0,f,c
  5311  006492  3625               	rlcf	(___fldiv@grs+3)^0,f,c
  5312  006494  0620               	decf	___fldiv@new_exp^0,f,c
  5313  006496  A0D8               	btfss	status,0,c
  5314  006498  0621               	decf	(___fldiv@new_exp+1)^0,f,c
  5315  00649A                     l1719:
  5316  00649A  AE11               	btfss	(___fldiv@b+2)^0,7,c
  5317  00649C  EF52  F032         	goto	u1471
  5318  0064A0  EF54  F032         	goto	u1470
  5319  0064A4                     u1471:
  5320  0064A4  EF38  F032         	goto	l1713
  5321  0064A8                     u1470:
  5322  0064A8  0E00               	movlw	0
  5323  0064AA  6E27               	movwf	___fldiv@aexp^0,c
  5324  0064AC  AE25               	btfss	(___fldiv@grs+3)^0,7,c
  5325  0064AE  EF5B  F032         	goto	u1481
  5326  0064B2  EF5D  F032         	goto	u1480
  5327  0064B6                     u1481:
  5328  0064B6  EF81  F032         	goto	l715
  5329  0064BA                     u1480:
  5330  0064BA  0EFF               	movlw	255
  5331  0064BC  1422               	andwf	___fldiv@grs^0,w,c
  5332  0064BE  6E17               	movwf	??___fldiv^0,c
  5333  0064C0  0EFF               	movlw	255
  5334  0064C2  1423               	andwf	(___fldiv@grs+1)^0,w,c
  5335  0064C4  6E18               	movwf	(??___fldiv+1)^0,c
  5336  0064C6  0EFF               	movlw	255
  5337  0064C8  1424               	andwf	(___fldiv@grs+2)^0,w,c
  5338  0064CA  6E19               	movwf	(??___fldiv+2)^0,c
  5339  0064CC  0E7F               	movlw	127
  5340  0064CE  1425               	andwf	(___fldiv@grs+3)^0,w,c
  5341  0064D0  6E1A               	movwf	(??___fldiv+3)^0,c
  5342  0064D2  5017               	movf	??___fldiv^0,w,c
  5343  0064D4  1018               	iorwf	(??___fldiv+1)^0,w,c
  5344  0064D6  1019               	iorwf	(??___fldiv+2)^0,w,c
  5345  0064D8  101A               	iorwf	(??___fldiv+3)^0,w,c
  5346  0064DA  B4D8               	btfsc	status,2,c
  5347  0064DC  EF72  F032         	goto	u1491
  5348  0064E0  EF74  F032         	goto	u1490
  5349  0064E4                     u1491:
  5350  0064E4  EF78  F032         	goto	l716
  5351  0064E8                     u1490:
  5352  0064E8                     l1727:
  5353  0064E8  0E01               	movlw	1
  5354  0064EA  6E27               	movwf	___fldiv@aexp^0,c
  5355  0064EC  EF81  F032         	goto	l715
  5356  0064F0                     l716:
  5357  0064F0  A00F               	btfss	___fldiv@b^0,0,c
  5358  0064F2  EF7D  F032         	goto	u1501
  5359  0064F6  EF7F  F032         	goto	u1500
  5360  0064FA                     u1501:
  5361  0064FA  EF81  F032         	goto	l715
  5362  0064FE                     u1500:
  5363  0064FE  EF74  F032         	goto	l1727
  5364  006502                     l715:
  5365  006502  5027               	movf	___fldiv@aexp^0,w,c
  5366  006504  B4D8               	btfsc	status,2,c
  5367  006506  EF87  F032         	goto	u1511
  5368  00650A  EF89  F032         	goto	u1510
  5369  00650E                     u1511:
  5370  00650E  EFAD  F032         	goto	l1739
  5371  006512                     u1510:
  5372  006512  0E01               	movlw	1
  5373  006514  260F               	addwf	___fldiv@b^0,f,c
  5374  006516  0E00               	movlw	0
  5375  006518  2210               	addwfc	(___fldiv@b+1)^0,f,c
  5376  00651A  2211               	addwfc	(___fldiv@b+2)^0,f,c
  5377  00651C  2212               	addwfc	(___fldiv@b+3)^0,f,c
  5378  00651E  A012               	btfss	(___fldiv@b+3)^0,0,c
  5379  006520  EF94  F032         	goto	u1521
  5380  006524  EF96  F032         	goto	u1520
  5381  006528                     u1521:
  5382  006528  EFAD  F032         	goto	l1739
  5383  00652C                     u1520:
  5384  00652C  C00F  F017         	movff	___fldiv@b,??___fldiv
  5385  006530  C010  F018         	movff	___fldiv@b+1,??___fldiv+1
  5386  006534  C011  F019         	movff	___fldiv@b+2,??___fldiv+2
  5387  006538  C012  F01A         	movff	___fldiv@b+3,??___fldiv+3
  5388  00653C  341A               	rlcf	(??___fldiv+3)^0,w,c
  5389  00653E  321A               	rrcf	(??___fldiv+3)^0,f,c
  5390  006540  3219               	rrcf	(??___fldiv+2)^0,f,c
  5391  006542  3218               	rrcf	(??___fldiv+1)^0,f,c
  5392  006544  3217               	rrcf	??___fldiv^0,f,c
  5393  006546  C017  F00F         	movff	??___fldiv,___fldiv@b
  5394  00654A  C018  F010         	movff	??___fldiv+1,___fldiv@b+1
  5395  00654E  C019  F011         	movff	??___fldiv+2,___fldiv@b+2
  5396  006552  C01A  F012         	movff	??___fldiv+3,___fldiv@b+3
  5397  006556  4A20               	infsnz	___fldiv@new_exp^0,f,c
  5398  006558  2A21               	incf	(___fldiv@new_exp+1)^0,f,c
  5399  00655A                     l1739:
  5400  00655A  BE21               	btfsc	(___fldiv@new_exp+1)^0,7,c
  5401  00655C  EFB8  F032         	goto	u1531
  5402  006560  5021               	movf	(___fldiv@new_exp+1)^0,w,c
  5403  006562  E108               	bnz	u1530
  5404  006564  2820               	incf	___fldiv@new_exp^0,w,c
  5405  006566  A0D8               	btfss	status,0,c
  5406  006568  EFB8  F032         	goto	u1531
  5407  00656C  EFBA  F032         	goto	u1530
  5408  006570                     u1531:
  5409  006570  EFC5  F032         	goto	l1743
  5410  006574                     u1530:
  5411  006574  0E00               	movlw	0
  5412  006576  6E21               	movwf	(___fldiv@new_exp+1)^0,c
  5413  006578  6820               	setf	___fldiv@new_exp^0,c
  5414  00657A  0E00               	movlw	0
  5415  00657C  6E0F               	movwf	___fldiv@b^0,c
  5416  00657E  0E00               	movlw	0
  5417  006580  6E10               	movwf	(___fldiv@b+1)^0,c
  5418  006582  0E00               	movlw	0
  5419  006584  6E11               	movwf	(___fldiv@b+2)^0,c
  5420  006586  0E00               	movlw	0
  5421  006588  6E12               	movwf	(___fldiv@b+3)^0,c
  5422  00658A                     l1743:
  5423  00658A  BE21               	btfsc	(___fldiv@new_exp+1)^0,7,c
  5424  00658C  EFD2  F032         	goto	u1540
  5425  006590  5021               	movf	(___fldiv@new_exp+1)^0,w,c
  5426  006592  E106               	bnz	u1541
  5427  006594  0420               	decf	___fldiv@new_exp^0,w,c
  5428  006596  B0D8               	btfsc	status,0,c
  5429  006598  EFD0  F032         	goto	u1541
  5430  00659C  EFD2  F032         	goto	u1540
  5431  0065A0                     u1541:
  5432  0065A0  EFE0  F032         	goto	l1747
  5433  0065A4                     u1540:
  5434  0065A4  0E00               	movlw	0
  5435  0065A6  6E21               	movwf	(___fldiv@new_exp+1)^0,c
  5436  0065A8  0E00               	movlw	0
  5437  0065AA  6E20               	movwf	___fldiv@new_exp^0,c
  5438  0065AC  0E00               	movlw	0
  5439  0065AE  6E0F               	movwf	___fldiv@b^0,c
  5440  0065B0  0E00               	movlw	0
  5441  0065B2  6E10               	movwf	(___fldiv@b+1)^0,c
  5442  0065B4  0E00               	movlw	0
  5443  0065B6  6E11               	movwf	(___fldiv@b+2)^0,c
  5444  0065B8  0E00               	movlw	0
  5445  0065BA  6E12               	movwf	(___fldiv@b+3)^0,c
  5446  0065BC  0E00               	movlw	0
  5447  0065BE  6E1F               	movwf	___fldiv@sign^0,c
  5448  0065C0                     l1747:
  5449  0065C0  C020  F026         	movff	___fldiv@new_exp,___fldiv@bexp
  5450  0065C4  A026               	btfss	___fldiv@bexp^0,0,c
  5451  0065C6  EFE7  F032         	goto	u1551
  5452  0065CA  EFE9  F032         	goto	u1550
  5453  0065CE                     u1551:
  5454  0065CE  EFEC  F032         	goto	l1753
  5455  0065D2                     u1550:
  5456  0065D2  8E11               	bsf	(___fldiv@b+2)^0,7,c
  5457  0065D4  EFED  F032         	goto	l1755
  5458  0065D8                     l1753:
  5459  0065D8  9E11               	bcf	(___fldiv@b+2)^0,7,c
  5460  0065DA                     l1755:
  5461  0065DA  90D8               	bcf	status,0,c
  5462  0065DC  3026               	rrcf	___fldiv@bexp^0,w,c
  5463  0065DE  6E12               	movwf	(___fldiv@b+3)^0,c
  5464  0065E0  EFA3  F031         	goto	l1669
  5465  0065E4                     l702:
  5466  0065E4  0012               	return		;funcret
  5467  0065E6                     __end_of___fldiv:
  5468                           	callstack 0
  5469  0000                     
  5470                           	psect	rparam
  5471  0000                     
  5472                           	psect	idloc
  5473                           
  5474                           ;Config register IDLOC0 @ 0x200000
  5475                           ;	unspecified, using default values
  5476  200000                     	org	2097152
  5477  200000  FF                 	db	255
  5478                           
  5479                           ;Config register IDLOC1 @ 0x200001
  5480                           ;	unspecified, using default values
  5481  200001                     	org	2097153
  5482  200001  FF                 	db	255
  5483                           
  5484                           ;Config register IDLOC2 @ 0x200002
  5485                           ;	unspecified, using default values
  5486  200002                     	org	2097154
  5487  200002  FF                 	db	255
  5488                           
  5489                           ;Config register IDLOC3 @ 0x200003
  5490                           ;	unspecified, using default values
  5491  200003                     	org	2097155
  5492  200003  FF                 	db	255
  5493                           
  5494                           ;Config register IDLOC4 @ 0x200004
  5495                           ;	unspecified, using default values
  5496  200004                     	org	2097156
  5497  200004  FF                 	db	255
  5498                           
  5499                           ;Config register IDLOC5 @ 0x200005
  5500                           ;	unspecified, using default values
  5501  200005                     	org	2097157
  5502  200005  FF                 	db	255
  5503                           
  5504                           ;Config register IDLOC6 @ 0x200006
  5505                           ;	unspecified, using default values
  5506  200006                     	org	2097158
  5507  200006  FF                 	db	255
  5508                           
  5509                           ;Config register IDLOC7 @ 0x200007
  5510                           ;	unspecified, using default values
  5511  200007                     	org	2097159
  5512  200007  FF                 	db	255
  5513                           
  5514                           	psect	config
  5515                           
  5516                           ;Config register CONFIG1L @ 0x300000
  5517                           ;	PLL Prescaler Selection bits
  5518                           ;	PLLDIV = 5, Divide by 5 (20 MHz oscillator input)
  5519                           ;	System Clock Postscaler Selection bits
  5520                           ;	CPUDIV = OSC1_PLL2, [Primary Oscillator Src: /1][96 MHz PLL Src: /2]
  5521                           ;	USB Clock Selection bit (used in Full-Speed USB mode only; UCFG:FSEN = 1)
  5522                           ;	USBDIV = 2, USB clock source comes from the 96 MHz PLL divided by 2
  5523  300000                     	org	3145728
  5524  300000  24                 	db	36
  5525                           
  5526                           ;Config register CONFIG1H @ 0x300001
  5527                           ;	Oscillator Selection bits
  5528                           ;	FOSC = HS, HS oscillator (HS)
  5529                           ;	Fail-Safe Clock Monitor Enable bit
  5530                           ;	FCMEN = OFF, Fail-Safe Clock Monitor disabled
  5531                           ;	Internal/External Oscillator Switchover bit
  5532                           ;	IESO = OFF, Oscillator Switchover mode disabled
  5533  300001                     	org	3145729
  5534  300001  0C                 	db	12
  5535                           
  5536                           ;Config register CONFIG2L @ 0x300002
  5537                           ;	Power-up Timer Enable bit
  5538                           ;	PWRT = OFF, PWRT disabled
  5539                           ;	Brown-out Reset Enable bits
  5540                           ;	BOR = ON, Brown-out Reset enabled in hardware only (SBOREN is disabled)
  5541                           ;	Brown-out Reset Voltage bits
  5542                           ;	BORV = 3, Minimum setting 2.05V
  5543                           ;	USB Voltage Regulator Enable bit
  5544                           ;	VREGEN = OFF, USB voltage regulator disabled
  5545  300002                     	org	3145730
  5546  300002  1F                 	db	31
  5547                           
  5548                           ;Config register CONFIG2H @ 0x300003
  5549                           ;	Watchdog Timer Enable bit
  5550                           ;	WDT = ON, WDT enabled
  5551                           ;	Watchdog Timer Postscale Select bits
  5552                           ;	WDTPS = 32768, 1:32768
  5553  300003                     	org	3145731
  5554  300003  1F                 	db	31
  5555                           
  5556                           ; Padding undefined space
  5557  300004                     	org	3145732
  5558  300004  FF                 	db	255
  5559                           
  5560                           ;Config register CONFIG3H @ 0x300005
  5561                           ;	CCP2 MUX bit
  5562                           ;	CCP2MX = ON, CCP2 input/output is multiplexed with RC1
  5563                           ;	PORTB A/D Enable bit
  5564                           ;	PBADEN = ON, PORTB<4:0> pins are configured as analog input channels on Reset
  5565                           ;	Low-Power Timer 1 Oscillator Enable bit
  5566                           ;	LPT1OSC = OFF, Timer1 configured for higher power operation
  5567                           ;	MCLR Pin Enable bit
  5568                           ;	MCLRE = ON, MCLR pin enabled; RE3 input pin disabled
  5569  300005                     	org	3145733
  5570  300005  83                 	db	131
  5571                           
  5572                           ;Config register CONFIG4L @ 0x300006
  5573                           ;	Stack Full/Underflow Reset Enable bit
  5574                           ;	STVREN = ON, Stack full/underflow will cause Reset
  5575                           ;	Single-Supply ICSP Enable bit
  5576                           ;	LVP = ON, Single-Supply ICSP enabled
  5577                           ;	Dedicated In-Circuit Debug/Programming Port (ICPORT) Enable bit
  5578                           ;	ICPRT = OFF, ICPORT disabled
  5579                           ;	Extended Instruction Set Enable bit
  5580                           ;	XINST = OFF, Instruction set extension and Indexed Addressing mode disabled (Legacy mo
      +                          de)
  5581                           ;	Background Debugger Enable bit
  5582                           ;	DEBUG = 0x1, unprogrammed default
  5583  300006                     	org	3145734
  5584  300006  85                 	db	133
  5585                           
  5586                           ; Padding undefined space
  5587  300007                     	org	3145735
  5588  300007  FF                 	db	255
  5589                           
  5590                           ;Config register CONFIG5L @ 0x300008
  5591                           ;	Code Protection bit
  5592                           ;	CP0 = OFF, Block 0 (000800-001FFFh) is not code-protected
  5593                           ;	Code Protection bit
  5594                           ;	CP1 = OFF, Block 1 (002000-003FFFh) is not code-protected
  5595                           ;	Code Protection bit
  5596                           ;	CP2 = OFF, Block 2 (004000-005FFFh) is not code-protected
  5597                           ;	Code Protection bit
  5598                           ;	CP3 = OFF, Block 3 (006000-007FFFh) is not code-protected
  5599  300008                     	org	3145736
  5600  300008  0F                 	db	15
  5601                           
  5602                           ;Config register CONFIG5H @ 0x300009
  5603                           ;	Boot Block Code Protection bit
  5604                           ;	CPB = OFF, Boot block (000000-0007FFh) is not code-protected
  5605                           ;	Data EEPROM Code Protection bit
  5606                           ;	CPD = OFF, Data EEPROM is not code-protected
  5607  300009                     	org	3145737
  5608  300009  C0                 	db	192
  5609                           
  5610                           ;Config register CONFIG6L @ 0x30000A
  5611                           ;	Write Protection bit
  5612                           ;	WRT0 = OFF, Block 0 (000800-001FFFh) is not write-protected
  5613                           ;	Write Protection bit
  5614                           ;	WRT1 = OFF, Block 1 (002000-003FFFh) is not write-protected
  5615                           ;	Write Protection bit
  5616                           ;	WRT2 = OFF, Block 2 (004000-005FFFh) is not write-protected
  5617                           ;	Write Protection bit
  5618                           ;	WRT3 = OFF, Block 3 (006000-007FFFh) is not write-protected
  5619  30000A                     	org	3145738
  5620  30000A  0F                 	db	15
  5621                           
  5622                           ;Config register CONFIG6H @ 0x30000B
  5623                           ;	Configuration Register Write Protection bit
  5624                           ;	WRTC = OFF, Configuration registers (300000-3000FFh) are not write-protected
  5625                           ;	Boot Block Write Protection bit
  5626                           ;	WRTB = OFF, Boot block (000000-0007FFh) is not write-protected
  5627                           ;	Data EEPROM Write Protection bit
  5628                           ;	WRTD = OFF, Data EEPROM is not write-protected
  5629  30000B                     	org	3145739
  5630  30000B  E0                 	db	224
  5631                           
  5632                           ;Config register CONFIG7L @ 0x30000C
  5633                           ;	Table Read Protection bit
  5634                           ;	EBTR0 = OFF, Block 0 (000800-001FFFh) is not protected from table reads executed in ot
      +                          her blocks
  5635                           ;	Table Read Protection bit
  5636                           ;	EBTR1 = OFF, Block 1 (002000-003FFFh) is not protected from table reads executed in ot
      +                          her blocks
  5637                           ;	Table Read Protection bit
  5638                           ;	EBTR2 = OFF, Block 2 (004000-005FFFh) is not protected from table reads executed in ot
      +                          her blocks
  5639                           ;	Table Read Protection bit
  5640                           ;	EBTR3 = OFF, Block 3 (006000-007FFFh) is not protected from table reads executed in ot
      +                          her blocks
  5641  30000C                     	org	3145740
  5642  30000C  0F                 	db	15
  5643                           
  5644                           ;Config register CONFIG7H @ 0x30000D
  5645                           ;	Boot Block Table Read Protection bit
  5646                           ;	EBTRB = OFF, Boot block (000000-0007FFh) is not protected from table reads executed in
      +                           other blocks
  5647  30000D                     	org	3145741
  5648  30000D  40                 	db	64
  5649                           tosu	equ	0xFFF
  5650                           tosh	equ	0xFFE
  5651                           tosl	equ	0xFFD
  5652                           stkptr	equ	0xFFC
  5653                           pclatu	equ	0xFFB
  5654                           pclath	equ	0xFFA
  5655                           pcl	equ	0xFF9
  5656                           tblptru	equ	0xFF8
  5657                           tblptrh	equ	0xFF7
  5658                           tblptrl	equ	0xFF6
  5659                           tablat	equ	0xFF5
  5660                           prodh	equ	0xFF4
  5661                           prodl	equ	0xFF3
  5662                           indf0	equ	0xFEF
  5663                           postinc0	equ	0xFEE
  5664                           postdec0	equ	0xFED
  5665                           preinc0	equ	0xFEC
  5666                           plusw0	equ	0xFEB
  5667                           fsr0h	equ	0xFEA
  5668                           fsr0l	equ	0xFE9
  5669                           wreg	equ	0xFE8
  5670                           indf1	equ	0xFE7
  5671                           postinc1	equ	0xFE6
  5672                           postdec1	equ	0xFE5
  5673                           preinc1	equ	0xFE4
  5674                           plusw1	equ	0xFE3
  5675                           fsr1h	equ	0xFE2
  5676                           fsr1l	equ	0xFE1
  5677                           bsr	equ	0xFE0
  5678                           indf2	equ	0xFDF
  5679                           postinc2	equ	0xFDE
  5680                           postdec2	equ	0xFDD
  5681                           preinc2	equ	0xFDC
  5682                           plusw2	equ	0xFDB
  5683                           fsr2h	equ	0xFDA
  5684                           fsr2l	equ	0xFD9
  5685                           status	equ	0xFD8

Data Sizes:
    Strings     0
    Constant    0
    Data        4
    BSS         14
    Persistent  0
    Stack       0

Auto Spaces:
    Space          Size  Autos    Used
    COMRAM           95     60      78
    BANK0           160      0       0
    BANK1           256      0       0
    BANK2           256      0       0
    BANK3           256      0       0
    BANK4           256      0       0
    BANK5           256      0       0
    BANK6           256      0       0
    BANK7           256      0       0

Pointer List with Targets:

    None.

Critical Paths under _main in COMRAM

    _cancion3->_silencio
    _cancion3->_tocar_nota
    _cancion2->_silencio
    _cancion2->_tocar_nota
    _cancion1->_silencio
    _cancion1->_tocar_nota
    _tocar_nota->___fltol
    _silencio->___fltol
    ___fltol->___fldiv
    ___flsub->___fldiv
    ___fldiv->___xxtofl

Critical Paths under _main in BANK0

    None.

Critical Paths under _main in BANK1

    None.

Critical Paths under _main in BANK2

    None.

Critical Paths under _main in BANK3

    None.

Critical Paths under _main in BANK4

    None.

Critical Paths under _main in BANK5

    None.

Critical Paths under _main in BANK6

    None.

Critical Paths under _main in BANK7

    None.

Call Graph Tables:

 ---------------------------------------------------------------------------------
 (Depth) Function   	        Calls       Base Space   Used Autos Params    Refs
 ---------------------------------------------------------------------------------
 (0) _main                                                 0     0      0  126192
                           _cancion1
                           _cancion2
                           _cancion3
                             _confT0
 ---------------------------------------------------------------------------------
 (1) _confT0                                               0     0      0       0
 ---------------------------------------------------------------------------------
 (1) _cancion3                                             0     0      0   42064
                           _silencio
                         _tocar_nota
 ---------------------------------------------------------------------------------
 (1) _cancion2                                             0     0      0   42064
                           _silencio
                         _tocar_nota
 ---------------------------------------------------------------------------------
 (1) _cancion1                                             0     0      0   42064
                           _silencio
                         _tocar_nota
 ---------------------------------------------------------------------------------
 (2) _tocar_nota                                          11     5      6   35092
                                             49 COMRAM    11     5      6
                            ___fldiv
                            ___flsub
                            ___fltol
                           ___xxtofl
 ---------------------------------------------------------------------------------
 (2) _silencio                                            11     5      6    6972
                                             49 COMRAM    11     5      6
                            ___fldiv
                            ___flsub
                            ___fltol
                           ___xxtofl
 ---------------------------------------------------------------------------------
 (3) ___xxtofl                                            14    10      4     474
                                              0 COMRAM    14    10      4
 ---------------------------------------------------------------------------------
 (3) ___fltol                                             10     6      4     685
                                             39 COMRAM    10     6      4
                            ___fldiv (ARG)
                           ___xxtofl (ARG)
 ---------------------------------------------------------------------------------
 (3) ___flsub                                              8     0      8    2737
                                             39 COMRAM     8     0      8
                            ___fladd
                            ___fldiv (ARG)
 ---------------------------------------------------------------------------------
 (4) ___fladd                                             16     8      8    2262
                                              0 COMRAM    16     8      8
 ---------------------------------------------------------------------------------
 (3) ___fldiv                                             25    17      8    2159
                                             14 COMRAM    25    17      8
                           ___xxtofl (ARG)
 ---------------------------------------------------------------------------------
 Estimated maximum stack depth 4
 ---------------------------------------------------------------------------------

 Call Graph Graphs:

 _main (ROOT)
   _cancion1
     _silencio
       ___fldiv
         ___xxtofl (ARG)
       ___flsub
         ___fladd
         ___fldiv (ARG)
       ___fltol
         ___fldiv (ARG)
         ___xxtofl (ARG)
       ___xxtofl
     _tocar_nota
       ___fldiv
       ___flsub
       ___fltol
       ___xxtofl
   _cancion2
     _silencio
     _tocar_nota
   _cancion3
     _silencio
     _tocar_nota
   _confT0

 Address spaces:
Name               Size   Autos  Total    Cost      Usage
BIGRAM             7FF      0       0      21        0.0%
EEDATA             100      0       0       0        0.0%
BITBANK7           100      0       0      18        0.0%
BANK7              100      0       0      19        0.0%
BITBANK6           100      0       0      16        0.0%
BANK6              100      0       0      17        0.0%
BITBANK5           100      0       0      14        0.0%
BANK5              100      0       0      15        0.0%
BITBANK4           100      0       0      12        0.0%
BANK4              100      0       0      13        0.0%
BITBANK3           100      0       0      10        0.0%
BANK3              100      0       0      11        0.0%
BITBANK2           100      0       0       8        0.0%
BANK2              100      0       0       9        0.0%
BITBANK1           100      0       0       6        0.0%
BANK1              100      0       0       7        0.0%
BITBANK0            A0      0       0       4        0.0%
BANK0               A0      0       0       5        0.0%
BITCOMRAM           5F      0       0       0        0.0%
COMRAM              5F     3C      4E       1       82.1%
BITSFR               0      0       0     200        0.0%
SFR                  0      0       0     200        0.0%
STACK                0      0       0       2        0.0%
NULL                 0      0       0       0        0.0%
ABS                  0      0      4E      20        0.0%
DATA                 0      0      4E       3        0.0%
CODE                 0      0       0       0        0.0%


Microchip Technology PIC18 Macro Assembler V2.32 build 20210201212658 
Symbol Table                                                                                   Thu Oct 14 12:54:06 2021

           ___fldiv@aexp 0027             ___fldiv@bexp 0026                        _a 0049  
                      _b 0047                        _s 0045             ___fldiv@sign 001F  
                     l70 6072                       l80 5EF4                       l72 6096  
                     l64 6018                       l65 6036                       l82 5F02  
                     l90 6F92                       l67 6044                       l84 5F26  
                     l76 5EA8                       l68 6064                       l77 5EC6  
                     l93 765C                       l79 5ED4                       l87 5BBC  
                     l96 7FFE                      l110 5CA8                      l111 5C92  
                    l103 5C52                      l107 5C72                      l417 5DB6  
                    l702 65E4                      l704 6444                      l713 648A  
                    l650 6788                      l715 6502                      l707 6408  
                    l716 64F0                      l648 67D4                      l665 68EE  
                    l657 6AA4                      l649 67C2                      l674 69BE  
                    l690 5C34                      l675 69AC                      l782 6186  
                    l775 60EE                      l778 624A                      l789 61E2  
                    u940 6600                      u941 65FC                      u950 6612  
                    u951 660E                      u960 6622                      u961 661E  
                    u970 6664                      u971 6660                      u980 667A  
                    u981 6676                      u990 668C                      u991 6688  
                    wreg 000FE8             ___fltol@exp1 0031                     l1501 6726  
                   l1511 6796                     l1503 672A                     l1431 6612  
                   l1423 65E6                     l1601 6A24                     l1521 67C0  
                   l1513 67A2                     l1505 6754                     l1441 664C  
                   l1433 6622                     l1425 65F2                     l1281 5BBA  
                   l1611 6A76                     l1603 6A34                     l1531 6816  
                   l1523 67E2                     l1515 67A6                     l1507 6770  
                   l1451 667A                     l1443 6652                     l1435 6632  
                   l1427 6600                     l1701 6412                     l1621 6A94  
                   l1613 6A7C                     l1605 6A44                     l1541 6850  
                   l1533 6824                     l1525 67F2                     l1517 67B4  
                   l1509 6780                     l1461 66AE                     l1453 667C  
                   l1445 6664                     l1437 6634                     l1429 6602  
                   l1277 5BA8                     l1711 646A                     l1703 6430  
                   l1631 6268                     l1615 6A7E                     l1607 6A64  
                   l1551 68BC                     l1543 6852                     l1535 6832  
                   l1519 67B6                     l1471 66EA                     l1455 668C  
                   l1463 66B6                     l1447 6666                     l1439 663C  
                   l1279 5BB2                     l1721 64A8                     l1713 6470  
                   l1705 6432                     l1633 6278                     l1641 62A2  
                   l1625 624C                     l1617 6A84                     l1609 6A68  
                   l1561 6914                     l1553 68BE                     l1545 685C  
                   l1537 683E                     l1529 6806                     l1481 66FE  
                   l1473 66EE                     l1465 66C6                     l1457 669C  
                   l1449 666C                     l1801 5D6A                     l1731 6512  
                   l1723 64AC                     l1715 647A                     l1707 6442  
                   l1651 62CE                     l1643 62B2                     l1635 6288  
                   l1627 6258                     l1619 6A92                     l1571 6942  
                   l1555 68CE                     l1539 6842                     l1547 6862  
                   l1491 6712                     l1483 6702                     l1475 66F2  
                   l1467 66D8                     l1459 66AC                     l1803 5D76  
                   l1741 6574                     l1733 651E                     l1725 64BA  
                   l1717 6488                     l1709 6454                     l1653 62DE  
                   l1661 6308                     l1645 62B8                     l1637 6298  
                   l1629 6266                     l1573 6950                     l1565 6928  
                   l1581 696E                     l1549 6888                     l1557 68DE  
                   l1493 6716                     l1485 6706                     l1477 66F6  
                   l1469 66E6                     l1805 5D86                     l1821 6114  
                   l1813 609A                     l1901 5C64                     l1751 65D2  
                   l1743 658A                     l1735 652C                     l1727 64E8  
                   l1719 649A                     l1671 634A                     l1663 6318  
                   l1655 62EE                     l1647 62BE                     l1639 629A  
                   l1575 6958                     l1567 6932                     l1559 6904  
                   l1583 697C                     l1495 671A                     l1487 670A  
                   l1479 66FA                     l1807 5D96                     l1831 616E  
                   l1815 60AA                     l1911 5CA0                     l1753 65D8  
                   l1745 65A4                     l1737 6556                     l1665 632E  
                   l1657 62FE                     l1649 62CC                     l1593 69CE  
                   l1585 6980                     l1577 695C                     l1569 6940  
                   l1497 671E                     l1489 670E                     l1809 5DA6  
                   l1841 61D2                     l1833 6170                     l1825 6128  
                   l1817 60B8                     l1905 5C80                     l1755 65DA  
                   l1747 65C0                     l1739 655A                     l1691 63CC  
                   l1683 6382                     l1667 633E                     l1675 635E  
                   l1659 6300                     l1595 69DA                     l1587 698E  
                   l1579 696C                     l1499 6722                     l1763 5BF0  
                   l1771 5CC8                     l1851 622A                     l1843 61F0  
                   l1835 617C                     l1827 6130                     l1819 60FE  
                   l1907 5C84                     l1749 65C4                     l1693 63D4  
                   l1685 639C                     l1677 636E                     l1669 6346  
                   l1597 69E8                     l1589 69A4                     l1765 5C00  
                   l1781 5D18                     l1853 6238                     l1845 61F2  
                   l1837 61B8                     l1829 613C                     l1861 600C  
                   l1695 63E4                     l1687 63AC                     l1679 636E  
                   l1599 6A22                     l1791 5D42                     l1783 5D1C  
                   l1775 5CDC                     l1855 623A                     l1847 61F6  
                   l1839 61C4                     l1871 5DB8                     l1863 601A  
                   l1697 63F8                     l1689 63BC                     l1793 5D4C  
                   l1785 5D2A                     l1777 5D06                     l1769 5CB2  
                   l1849 621A                     l1881 5F08                     l1873 5E9C  
                   l1865 6048                     l1699 6406                     l1795 5D56  
                   l1779 5D08                     l1875 5EAA                     l1867 6074  
                   l1859 5F28                     l1883 6AA6                     l1891 5C3E  
                   l1877 5ED8                     l1869 6078                     l1885 6F94  
                   l1893 5C40                     l1879 5F04                     l1887 765E  
                   l1895 5C44                     l1889 5C36                     l1899 5C60  
                   u1000 669C                     u1001 6698                     u1010 66D8  
                   u1011 66D4                     u1100 67F2                     u1020 66E6  
                   u1101 67EE                     u1021 66E2                     u1110 6824  
                   u1030 6754                     u1111 6820                     u1031 6750  
                   u1200 696C                     u1120 6832                     u1040 676C  
                   u1201 6968                     u1121 682E                     u1041 6766  
                   u1210 697C                     u1130 6850                     u1050 676E  
                   u1211 6978                     u1131 684C                     u1300 6A64  
                   u1220 698E                     u1140 6888                     u1060 6796  
                   u1301 6A60                     u1221 698A                     u1141 6884  
                   u1061 6792                     u1310 6A76                     u1230 69A4  
                   u1150 68CE                     u1070 67B4                     u1311 6A72  
                   u1231 69A0                     u1151 68CA                     u1071 67B0  
                   u1400 636E                     u1320 6A92                     u1240 69BA  
                   u1160 6904                     u1080 67D4                     u1401 636A  
                   u1321 6A8E                     u1241 69B6                     u1161 6900  
                   u1081 67D0                     u1410 63E4                     u1330 6266  
                   u1250 69CE                     u1170 6914                     u1090 67E2  
                   u1411 63E0                     u1331 6262                     u1251 69CA  
                   u1171 6910                     u1091 67DE                     u1500 64FE  
                   u1420 6406                     u1340 6278                     u1260 69E8  
                   u1180 6940                     u1501 64FA                     u1421 6402  
                   u1341 6274                     u1261 69E4                     u1181 693C  
                   u1510 6512                     u1430 6430                     u1350 6288  
                   u1270 6A22                     u1190 6950                     u1511 650E  
                   u1431 642C                     u1351 6284                     u1271 6A1E  
                   u1191 694C                     u1520 652C                     u1440 6454  
                   u1360 62CC                     u1280 6A34                     u1600 5D66  
                   u1521 6528                     u1441 6450                     u1361 62C8  
                   u1281 6A30                     u1601 5D62                     u1530 6574  
                   u1450 646A                     u1370 62DE                     u1290 6A44  
                   u1610 5D86                     u1531 6570                     u1451 6466  
                   u1371 62DA                     u1291 6A40                     u1611 5D82  
                   u1540 65A4                     u1460 6488                     u1380 62EE  
                   u1620 5D96                     u1700 61F0                     u1541 65A0  
                   u1461 6484                     u1381 62EA                     u1621 5D92  
                   u1701 61EC                     u1550 65D2                     u1470 64A8  
                   u1390 632E                     u1710 622A                     u1630 60AA  
                   u1551 65CE                     u1471 64A4                     u1391 632A  
                   u1711 6226                     u1631 60A6                     u1480 64BA  
                   u1560 5CC8                     u1720 6238                     u1640 60B8  
                   u1800 5C60                     u1481 64B6                     u1561 5CC4  
                   u1721 6234                     u1641 60B4                     u1801 5C5C  
                   u1490 64E8                     u1570 5CFC                     u1650 6114  
                   u1730 6044                     u1810 5C72                     u1491 64E4  
                   u1651 6110                     u1731 6040                     u1811 5C6E  
                   u1580 5D2A                     u1660 616A                     u1740 6072  
                   u1820 5C80                     u1581 5D26                     u1661 6166  
                   u1741 606E                     u1821 5C7C                     u1590 5D3E  
                   u1670 61B4                     u1750 6096                     u1830 5C92  
                   u1591 5D3A                     u1575 5CF2                     u1671 61B0  
                   u1751 6092                     u1831 5C8E                     u1680 61D2  
                   u1760 5ED4                     u1840 5CA0                     u1681 61CE  
                   u1761 5ED0                     u1841 5C9C                     u1690 61E2  
                   u1770 5F02                     u1691 61DE                     u1771 5EFE  
                   u1780 5F26                     u1781 5F22                     u1790 5C52  
                   u1791 5C4E                     _TMR0 000FD6                     _main 5C36  
                   fsr1l 000FE1                     start 0000          ___fldiv@new_exp 0020  
           ___param_bank 000000            ___fltol@sign1 0030          __end_of___fladd 6AA6  
                  ?_main 0001          __end_of___fldiv 65E6          __end_of___flsub 5C36  
        __end_of___fltol 5DB8                    _PORTD 000F83                    _TRISA 000F92  
                  _TRISB 000F93                    _TRISD 000F95                    tablat 000FF5  
                  status 000FD8          __initialization 5BBE             __end_of_main 5CB2  
                 ??_main 003D            __activetblptr 000000                   _ADCON1 000FC1  
        tocar_nota@tfrec 0034         __end_of_cancion1 6F94         __end_of_cancion2 765E  
       __end_of_cancion3 8000         __end_of___xxtofl 624C                ??___fladd 0009  
              ??___fldiv 0017                ??___flsub 0030                ??___fltol 002C  
                 _confT0 5BA8                   clear_0 5BE4                   isa$std 000001  
           __pdataCOMRAM 004B         __end_of_silencio 5F28                   tblptrh 000FF7  
                 tblptrl 000FF6                   tblptru 000FF8             ___xxtofl@arg 000B  
           ___xxtofl@exp 000A             ___xxtofl@val 0001               __accesstop 0060  
__end_of__initialization 5BEA            ___rparam_used 000001               ___fltol@f1 0028  
         __pcstackCOMRAM 0001                  ?_confT0 0001                ?_cancion1 0001  
              ?_cancion2 0001                ?_cancion3 0001                ?___xxtofl 0001  
                __Hparam 0000                  __Lparam 0000                ?_silencio 0032  
                ___fladd 65E6                  ___fldiv 624C                  ___flsub 5BF0  
                ___fltol 5CB2          __size_of_confT0 0016                  __pcinit 5BBE  
                __ramtop 0800                  __ptext0 5C36                  __ptext1 5BA8  
                __ptext2 765E                  __ptext3 6F94                  __ptext4 6AA6  
                __ptext5 5F28                  __ptext6 5DB8                  __ptext7 6098  
                __ptext8 5CB2                  __ptext9 5BF0                  _buffer1 003D  
              _T0CONbits 000FD5               ??_cancion1 003D               ??_cancion2 003D  
             ??_cancion3 003D               ??___xxtofl 0005       tocar_nota@duracion 0032  
   end_of_initialization 5BEA               ??_silencio 0038                  postdec1 000FE5  
                postinc0 000FEE                _PORTAbits 000F80                _PORTBbits 000F81  
             _tocar_nota 5F28              ___fladd@grs 0010            ___xxtofl@sign 0009  
              _TRISDbits 000F95              ___fldiv@grs 0022              ___fldiv@rem 001B  
        _tocar_nota$1015 0039            __pidataCOMRAM 5BA4           __end_of_confT0 5BBE  
    start_initialization 5BBE                 ??_confT0 0001              ?_tocar_nota 0032  
              ___fladd@a 0005                ___fladd@b 0001                ___fldiv@a 0013  
              ___fldiv@b 000F         silencio@duracion 0032              __pbssCOMRAM 003D  
              ___flsub@a 002C                ___flsub@b 0028        __size_of_cancion1 04EE  
      __size_of_cancion2 06CA        __size_of_cancion3 09A2        __size_of___xxtofl 01B4  
               ?___fladd 0001                 ?___fldiv 000F                 ?___flsub 0028  
               ?___fltol 0028        __size_of_silencio 0170                _distancia 004B  
               _LATDbits 000F8C      __size_of_tocar_nota 0170            _silencio$1016 0039  
              copy_data0 5BD2                 __Hrparam 0000                 __Lrparam 0000  
       __size_of___fladd 04C0         __size_of___fldiv 039A         __size_of___flsub 0046  
       __size_of___fltol 0106                 _cancion1 6AA6                 _cancion2 6F94  
               _cancion3 765E                 ___xxtofl 6098            silencio@tfrec 0034  
               __ptext10 65E6                 __ptext11 624C            __size_of_main 007C  
               _silencio 5DB8                 isa$xinst 000000             ??_tocar_nota 0038  
             _INTCONbits 000FF2       __end_of_tocar_nota 6098            ___fladd@signs 000D  
           ___fladd@aexp 000E             ___fladd@bexp 000F  
